---
triple:          'arm64-apple-darwin'
binary-path:     skim
relocations:
  - { offsetInCU: 0x49, offset: 0x49, size: 0x8, addend: 0x0, symName: __MergedGlobals, symObjAddr: 0x549718, symBinAddr: 0x10002C048, symSize: 0x0 }
  - { offsetInCU: 0x230C, offset: 0x230C, size: 0x8, addend: 0x0, symName: __ZN4ROOT8Internal3RDF18AddDSColumnsHelperINS_6VecOps4RVecIiEEEEvRKNSt3__112basic_stringIcNS6_11char_traitsIcEENS6_9allocatorIcEEEERNS_6Detail3RDF12RLoopManagerERNS_3RDF11RDataSourceERNS1_15RColumnRegisterE, symObjAddr: 0x6DE8, symBinAddr: 0x10000A418, symSize: 0x2E8 }
  - { offsetInCU: 0x30BB, offset: 0x30BB, size: 0x8, addend: 0x0, symName: __ZN4ROOT8Internal3RDF18AddDSColumnsHelperINS_6VecOps4RVecIfEEEEvRKNSt3__112basic_stringIcNS6_11char_traitsIcEENS6_9allocatorIcEEEERNS_6Detail3RDF12RLoopManagerERNS_3RDF11RDataSourceERNS1_15RColumnRegisterE, symObjAddr: 0x70D0, symBinAddr: 0x10000A700, symSize: 0x2E8 }
  - { offsetInCU: 0x3F82, offset: 0x3F82, size: 0x8, addend: 0x0, symName: __ZN4ROOT8Internal3RDF16GetColumnReadersIJNS_6VecOps4RVecIiEENS4_IfEES6_S6_S5_S6_S6_S6_EEENSt3__15arrayIPNS_6Detail3RDF17RColumnReaderBaseEXsZT_EEEjP11TTreeReaderNS_10TypeTraits8TypeListIJDpT_EEERKNS1_18RColumnReadersInfoERKNS7_12basic_stringIcNS7_11char_traitsIcEENS7_9allocatorIcEEEE, symObjAddr: 0x8530, symBinAddr: 0x10000BB60, symSize: 0x234 }
  - { offsetInCU: 0x437C, offset: 0x437C, size: 0x8, addend: 0x0, symName: __ZN4ROOT8Internal3RDF15GetColumnReaderINS_6VecOps4RVecIiEEEEPNS_6Detail3RDF17RColumnReaderBaseEjS9_RNS7_12RLoopManagerEP11TTreeReaderRKNSt3__112basic_stringIcNSE_11char_traitsIcEENSE_9allocatorIcEEEE, symObjAddr: 0x8764, symBinAddr: 0x10000BD94, symSize: 0x1A4 }
  - { offsetInCU: 0x4949, offset: 0x4949, size: 0x8, addend: 0x0, symName: __ZN4ROOT8Internal3RDF15GetColumnReaderINS_6VecOps4RVecIfEEEEPNS_6Detail3RDF17RColumnReaderBaseEjS9_RNS7_12RLoopManagerEP11TTreeReaderRKNSt3__112basic_stringIcNSE_11char_traitsIcEENSE_9allocatorIcEEEE, symObjAddr: 0x8908, symBinAddr: 0x10000BF38, symSize: 0x1A4 }
  - { offsetInCU: 0x4F82, offset: 0x4F82, size: 0x8, addend: 0x0, symName: __ZN4ROOT8Internal3RDF18AddDSColumnsHelperIfEEvRKNSt3__112basic_stringIcNS3_11char_traitsIcEENS3_9allocatorIcEEEERNS_6Detail3RDF12RLoopManagerERNS_3RDF11RDataSourceERNS1_15RColumnRegisterE, symObjAddr: 0xC748, symBinAddr: 0x10000FD78, symSize: 0x2E8 }
  - { offsetInCU: 0x5DA8, offset: 0x5DA8, size: 0x8, addend: 0x0, symName: __ZN4ROOT8Internal3RDF16GetColumnReadersIJffffEEENSt3__15arrayIPNS_6Detail3RDF17RColumnReaderBaseEXsZT_EEEjP11TTreeReaderNS_10TypeTraits8TypeListIJDpT_EEERKNS1_18RColumnReadersInfoERKNS3_12basic_stringIcNS3_11char_traitsIcEENS3_9allocatorIcEEEE, symObjAddr: 0xD4A8, symBinAddr: 0x100010AD8, symSize: 0x134 }
  - { offsetInCU: 0x5FFE, offset: 0x5FFE, size: 0x8, addend: 0x0, symName: __ZN4ROOT8Internal3RDF15GetColumnReaderIfEEPNS_6Detail3RDF17RColumnReaderBaseEjS6_RNS4_12RLoopManagerEP11TTreeReaderRKNSt3__112basic_stringIcNSB_11char_traitsIcEENSB_9allocatorIcEEEE, symObjAddr: 0xD5DC, symBinAddr: 0x100010C0C, symSize: 0x170 }
  - { offsetInCU: 0x65A3, offset: 0x65A3, size: 0x8, addend: 0x0, symName: __ZN4ROOT8Internal3RDF18AddDSColumnsHelperINS_4Math13LorentzVectorINS3_11PtEtaPhiM4DIdEEEEEEvRKNSt3__112basic_stringIcNS8_11char_traitsIcEENS8_9allocatorIcEEEERNS_6Detail3RDF12RLoopManagerERNS_3RDF11RDataSourceERNS1_15RColumnRegisterE, symObjAddr: 0x11654, symBinAddr: 0x100014C84, symSize: 0x2E8 }
  - { offsetInCU: 0x7454, offset: 0x7454, size: 0x8, addend: 0x0, symName: __ZN4ROOT8Internal3RDF15GetColumnReaderINS_4Math13LorentzVectorINS3_11PtEtaPhiM4DIdEEEEEEPNS_6Detail3RDF17RColumnReaderBaseEjSB_RNS9_12RLoopManagerEP11TTreeReaderRKNSt3__112basic_stringIcNSG_11char_traitsIcEENSG_9allocatorIcEEEE, symObjAddr: 0x12510, symBinAddr: 0x100015B40, symSize: 0x170 }
  - { offsetInCU: 0xF7C5, offset: 0xF7C5, size: 0x8, addend: 0x0, symName: __ZN4ROOT4Math9GenVector5ThrowEPKc, symObjAddr: 0xDBC0, symBinAddr: 0x1000111F0, symSize: 0xC0 }
  - { offsetInCU: 0x145D1, offset: 0x145D1, size: 0x8, addend: 0x0, symName: __ZN4ROOT6VecOps12CombinationsIffEENS0_4RVecINS2_INS2_IT_E9size_typeEEEEERKS4_RKNS2_IT0_EE, symObjAddr: 0xADF0, symBinAddr: 0x10000E420, symSize: 0x3E8 }
  - { offsetInCU: 0x14FFE, offset: 0x14FFE, size: 0x8, addend: 0x0, symName: __MergedGlobals, symObjAddr: 0x549718, symBinAddr: 0x10002C048, symSize: 0x0 }
  - { offsetInCU: 0x19200, offset: 0x19200, size: 0x8, addend: 0x0, symName: __ZNSt3__1L19piecewise_constructE, symObjAddr: 0x204B0, symBinAddr: 0x100024BC0, symSize: 0x0 }
  - { offsetInCU: 0x7A7F4, offset: 0x7A7F4, size: 0x8, addend: 0x0, symName: __ZNSt3__124__put_character_sequenceB7v160006IcNS_11char_traitsIcEEEERNS_13basic_ostreamIT_T0_EES7_PKS4_m, symObjAddr: 0x1626C, symBinAddr: 0x10001989C, symSize: 0x164 }
  - { offsetInCU: 0x93550, offset: 0x93550, size: 0x8, addend: 0x0, symName: __ZNSt3__120__throw_length_errorB7v160006EPKc, symObjAddr: 0x6664, symBinAddr: 0x100009C94, symSize: 0x50 }
  - { offsetInCU: 0x947BE, offset: 0x947BE, size: 0x8, addend: 0x0, symName: __ZNSt3__118uninitialized_copyB7v160006IN16TTreeReaderArrayIiE10Iterator_tIS2_EEPiEET0_T_S7_S6_, symObjAddr: 0x9814, symBinAddr: 0x10000CE44, symSize: 0x190 }
  - { offsetInCU: 0x94E20, offset: 0x94E20, size: 0x8, addend: 0x0, symName: __ZNSt3__118uninitialized_copyB7v160006IN16TTreeReaderArrayIfE10Iterator_tIS2_EEPfEET0_T_S7_S6_, symObjAddr: 0xA69C, symBinAddr: 0x10000DCCC, symSize: 0x190 }
  - { offsetInCU: 0x99F7E, offset: 0x99F7E, size: 0x8, addend: 0x0, symName: __ZNSt3__116__pad_and_outputB7v160006IcNS_11char_traitsIcEEEENS_19ostreambuf_iteratorIT_T0_EES6_PKS4_S8_S8_RNS_8ios_baseES4_, symObjAddr: 0x163D0, symBinAddr: 0x100019A00, symSize: 0x194 }
  - { offsetInCU: 0x9C051, offset: 0x9C051, size: 0x8, addend: 0x0, symName: __ZNSt3__125__throw_bad_function_callB7v160006Ev, symObjAddr: 0x1A98C, symBinAddr: 0x10001DFBC, symSize: 0x34 }
  - { offsetInCU: 0x9EEDA, offset: 0x9EEDA, size: 0x8, addend: 0x0, symName: __ZSt28__throw_bad_array_new_lengthB7v160006v, symObjAddr: 0x66D8, symBinAddr: 0x100009D08, symSize: 0x28 }
  - { offsetInCU: 0xBFDDF, offset: 0xBFDDF, size: 0x8, addend: 0x0, symName: __ZNK16TTreeReaderValueIfE18GetDerivedTypeNameEv, symObjAddr: 0xD8BC, symBinAddr: 0x100010EEC, symSize: 0xA8 }
  - { offsetInCU: 0xBFE03, offset: 0xBFE03, size: 0x8, addend: 0x0, symName: __ZZNK16TTreeReaderValueIfE18GetDerivedTypeNameEvE16sElementTypeName, symObjAddr: 0x24C10, symBinAddr: 0x10002C000, symSize: 0x0 }
  - { offsetInCU: 0xC0014, offset: 0xC0014, size: 0x8, addend: 0x0, symName: __ZNK16TTreeReaderValueIN4ROOT4Math13LorentzVectorINS1_11PtEtaPhiM4DIdEEEEE18GetDerivedTypeNameEv, symObjAddr: 0x127E4, symBinAddr: 0x100015E14, symSize: 0xA8 }
  - { offsetInCU: 0xC0038, offset: 0xC0038, size: 0x8, addend: 0x0, symName: __ZZNK16TTreeReaderValueIN4ROOT4Math13LorentzVectorINS1_11PtEtaPhiM4DIdEEEEE18GetDerivedTypeNameEvE16sElementTypeName, symObjAddr: 0x24C38, symBinAddr: 0x10002C028, symSize: 0x0 }
  - { offsetInCU: 0xCB577, offset: 0xCB577, size: 0x8, addend: 0x0, symName: __Z15FindMuonTauPairIN4ROOT3RDF10RInterfaceINS0_6Detail3RDF13RJittedFilterEvEEEDaRT_, symObjAddr: 0x15F4, symBinAddr: 0x100004C24, symSize: 0x594 }
  - { offsetInCU: 0xCDF5F, offset: 0xCDF5F, size: 0x8, addend: 0x0, symName: __Z16DeclareVariablesIN4ROOT3RDF10RInterfaceINS0_6Detail3RDF13RJittedFilterEvEEEDaRT_, symObjAddr: 0x1B88, symBinAddr: 0x1000051B8, symSize: 0x2F8C }
  - { offsetInCU: 0xE1E3C, offset: 0xE1E3C, size: 0x8, addend: 0x0, symName: __Z14AddEventWeightIN4ROOT3RDF10RInterfaceINS0_6Detail3RDF13RJittedFilterEvEEEDaRT_RKNSt3__112basic_stringIcNSA_11char_traitsIcEENSA_9allocatorIcEEEEffff, symObjAddr: 0x4B14, symBinAddr: 0x100008144, symSize: 0x254 }
  - { offsetInCU: 0xE3EC1, offset: 0xE3EC1, size: 0x8, addend: 0x0, symName: __ZN4ROOT8Internal3RDF13RVariedActionINS1_11CountHelperENS_6Detail3RDF12RLoopManagerENS_10TypeTraits8TypeListIJEEEE17GetSampleCallbackEv, symObjAddr: 0x18FBC, symBinAddr: 0x10001C5EC, symSize: 0x274 }
  - { offsetInCU: 0xE52AF, offset: 0xE52AF, size: 0x8, addend: 0x0, symName: __ZN4ROOT8Internal3RDF13RVariedActionINS1_12ReportHelperINS_6Detail3RDF13RJittedFilterEEES6_NS_10TypeTraits8TypeListIJEEEE17GetSampleCallbackEv, symObjAddr: 0x1C79C, symBinAddr: 0x10001FDCC, symSize: 0x274 }
  - { offsetInCU: 0xE97E0, offset: 0xE97E0, size: 0x8, addend: 0x0, symName: __ZNSt3__112basic_stringIcNS_11char_traitsIcEENS_9allocatorIcEEEC1B7v160006IDnEEPKc, symObjAddr: 0x0, symBinAddr: 0x100003630, symSize: 0x9C }
  - { offsetInCU: 0xE9B53, offset: 0xE9B53, size: 0x8, addend: 0x0, symName: __ZNSt3__16vectorINS_12basic_stringIcNS_11char_traitsIcEENS_9allocatorIcEEEENS4_IS6_EEEC1B7v160006ESt16initializer_listIS6_E, symObjAddr: 0x9C, symBinAddr: 0x1000036CC, symSize: 0x134 }
  - { offsetInCU: 0xE9B65, offset: 0xE9B65, size: 0x8, addend: 0x0, symName: __ZNKSt3__112basic_stringIcNS_11char_traitsIcEENS_9allocatorIcEEE20__throw_length_errorB7v160006Ev, symObjAddr: 0x16258, symBinAddr: 0x100019888, symSize: 0x14 }
  - { offsetInCU: 0xE9B8E, offset: 0xE9B8E, size: 0x8, addend: 0x0, symName: __ZNSt3__124__put_character_sequenceB7v160006IcNS_11char_traitsIcEEEERNS_13basic_ostreamIT_T0_EES7_PKS4_m, symObjAddr: 0x1626C, symBinAddr: 0x10001989C, symSize: 0x164 }
  - { offsetInCU: 0xE9FAD, offset: 0xE9FAD, size: 0x8, addend: 0x0, symName: __ZNSt3__16vectorINS_12basic_stringIcNS_11char_traitsIcEENS_9allocatorIcEEEENS4_IS6_EEEC1B7v160006ESt16initializer_listIS6_E, symObjAddr: 0x9C, symBinAddr: 0x1000036CC, symSize: 0x134 }
  - { offsetInCU: 0xEA5DE, offset: 0xEA5DE, size: 0x8, addend: 0x0, symName: __ZNKSt3__16vectorINS_12basic_stringIcNS_11char_traitsIcEENS_9allocatorIcEEEENS4_IS6_EEE20__throw_length_errorB7v160006Ev, symObjAddr: 0x6650, symBinAddr: 0x100009C80, symSize: 0x14 }
  - { offsetInCU: 0xEA607, offset: 0xEA607, size: 0x8, addend: 0x0, symName: __ZNSt3__120__throw_length_errorB7v160006EPKc, symObjAddr: 0x6664, symBinAddr: 0x100009C94, symSize: 0x50 }
  - { offsetInCU: 0xEA62C, offset: 0xEA62C, size: 0x8, addend: 0x0, symName: __ZNSt3__16vectorINS_12basic_stringIcNS_11char_traitsIcEENS_9allocatorIcEEEENS4_IS6_EEED1B7v160006Ev, symObjAddr: 0x1D0, symBinAddr: 0x100003800, symSize: 0x74 }
  - { offsetInCU: 0xEB319, offset: 0xEB319, size: 0x8, addend: 0x0, symName: _main, symObjAddr: 0x244, symBinAddr: 0x100003874, symSize: 0xEF0 }
  - { offsetInCU: 0xEEB1F, offset: 0xEEB1F, size: 0x8, addend: 0x0, symName: __ZN4ROOT3RDF10RInterfaceINS_6Detail3RDF12RLoopManagerEvE5CountEv, symObjAddr: 0x1134, symBinAddr: 0x100004764, symSize: 0x304 }
  - { offsetInCU: 0xEFA93, offset: 0xEFA93, size: 0x8, addend: 0x0, symName: __Z16MinimalSelectionIN4ROOT10RDataFrameEEDaRT_, symObjAddr: 0x14D4, symBinAddr: 0x100004B04, symSize: 0x120 }
  - { offsetInCU: 0xEFD64, offset: 0xEFD64, size: 0x8, addend: 0x0, symName: __ZN4ROOT3RDF10RInterfaceINS_6Detail3RDF13RJittedFilterEvE6DefineENSt3__117basic_string_viewIcNS6_11char_traitsIcEEEESA_, symObjAddr: 0x5FEC, symBinAddr: 0x10000961C, symSize: 0x3EC }
  - { offsetInCU: 0xF10CA, offset: 0xF10CA, size: 0x8, addend: 0x0, symName: __ZN4ROOT3RDF10RInterfaceINS_6Detail3RDF13RJittedFilterEvE6FilterENSt3__117basic_string_viewIcNS6_11char_traitsIcEEEESA_, symObjAddr: 0x5C70, symBinAddr: 0x1000092A0, symSize: 0x24C }
  - { offsetInCU: 0xF1870, offset: 0xF1870, size: 0x8, addend: 0x0, symName: __ZN4ROOT3RDF10RInterfaceINS_6Detail3RDF13RJittedFilterEvE6ReportEv, symObjAddr: 0x4D68, symBinAddr: 0x100008398, symSize: 0x2FC }
  - { offsetInCU: 0xF27DD, offset: 0xF27DD, size: 0x8, addend: 0x0, symName: __ZN4ROOT3RDF10RInterfaceINS_6Detail3RDF13RJittedFilterEvE8SnapshotENSt3__117basic_string_viewIcNS6_11char_traitsIcEEEESA_RKNS6_6vectorINS6_12basic_stringIcS9_NS6_9allocatorIcEEEENSD_ISF_EEEERKNS0_16RSnapshotOptionsE, symObjAddr: 0x5064, symBinAddr: 0x100008694, symSize: 0x7D8 }
  - { offsetInCU: 0xF531A, offset: 0xF531A, size: 0x8, addend: 0x0, symName: __ZN4ROOT3RDF10RResultPtrIyED1Ev, symObjAddr: 0x1438, symBinAddr: 0x100004A68, symSize: 0x9C }
  - { offsetInCU: 0xF5462, offset: 0xF5462, size: 0x8, addend: 0x0, symName: __ZN4ROOT3RDF10RResultPtrINS0_14RCutFlowReportEED1Ev, symObjAddr: 0x583C, symBinAddr: 0x100008E6C, symSize: 0x9C }
  - { offsetInCU: 0xF55AA, offset: 0xF55AA, size: 0x8, addend: 0x0, symName: __ZN4ROOT3RDF10RInterfaceINS_6Detail3RDF13RJittedFilterEvED1Ev, symObjAddr: 0x58D8, symBinAddr: 0x100008F08, symSize: 0x70 }
  - { offsetInCU: 0xF5680, offset: 0xF5680, size: 0x8, addend: 0x0, symName: __ZN4ROOT10RDataFrameD1Ev, symObjAddr: 0x5948, symBinAddr: 0x100008F78, symSize: 0x70 }
  - { offsetInCU: 0xF5E4D, offset: 0xF5E4D, size: 0x8, addend: 0x0, symName: __ZN4ROOT8Internal3RDF7RActionINS1_11CountHelperENS_6Detail3RDF12RLoopManagerENS_10TypeTraits8TypeListIJEEEEC2EOS3_RKNSt3__16vectorINSC_12basic_stringIcNSC_11char_traitsIcEENSC_9allocatorIcEEEENSH_ISJ_EEEENSC_10shared_ptrIS6_EERKNS1_15RColumnRegisterE, symObjAddr: 0x16624, symBinAddr: 0x100019C54, symSize: 0x184 }
  - { offsetInCU: 0xF644D, offset: 0xF644D, size: 0x8, addend: 0x0, symName: __ZNSt3__110shared_ptrIN4ROOT6Detail3RDF12RLoopManagerEED1B7v160006Ev, symObjAddr: 0x161F8, symBinAddr: 0x100019828, symSize: 0x60 }
  - { offsetInCU: 0xF64E1, offset: 0xF64E1, size: 0x8, addend: 0x0, symName: __ZN4ROOT8Internal3RDF11CountHelperD1Ev, symObjAddr: 0x16564, symBinAddr: 0x100019B94, symSize: 0x80 }
  - { offsetInCU: 0xF66DB, offset: 0xF66DB, size: 0x8, addend: 0x0, symName: __ZNSt3__110shared_ptrIyED1B7v160006Ev, symObjAddr: 0x59C4, symBinAddr: 0x100008FF4, symSize: 0x60 }
  - { offsetInCU: 0xF676F, offset: 0xF676F, size: 0x8, addend: 0x0, symName: __ZN4ROOT3RDF10RInterfaceINS_6Detail3RDF12RLoopManagerEvE6FilterENSt3__117basic_string_viewIcNS6_11char_traitsIcEEEESA_, symObjAddr: 0x5A24, symBinAddr: 0x100009054, symSize: 0x24C }
  - { offsetInCU: 0xF6F65, offset: 0xF6F65, size: 0x8, addend: 0x0, symName: __ZN4ROOT3RDF10RInterfaceINS_6Detail3RDF13RJittedFilterEvE10DefineImplIZ15FindMuonTauPairIS5_EDaRT_EUlRNS_6VecOps4RVecIiEERNSC_IfEESG_SG_SE_SG_SG_SG_E_NS3_18ExtraArgsForDefine4NoneENSt3__16vectorIiNSK_9allocatorIiEEEEEENSK_9enable_ifIXsr3std24is_default_constructibleIT1_EE5valueES5_E4typeENSK_17basic_string_viewIcNSK_11char_traitsIcEEEEOS9_RKNSL_INSK_12basic_stringIcSV_NSM_IcEEEENSM_IS10_EEEERKS10_, symObjAddr: 0x6768, symBinAddr: 0x100009D98, symSize: 0x620 }
  - { offsetInCU: 0xF914B, offset: 0xF914B, size: 0x8, addend: 0x0, symName: __ZN4ROOT3RDF10RInterfaceINS_6Detail3RDF13RJittedFilterEvE10DefineImplIZ16DeclareVariablesIS5_EDaRT_EUlffffE_NS3_18ExtraArgsForDefine4NoneENS_4Math13LorentzVectorINSE_11PtEtaPhiM4DIdEEEEEENSt3__19enable_ifIXsr3std24is_default_constructibleIT1_EE5valueES5_E4typeENSJ_17basic_string_viewIcNSJ_11char_traitsIcEEEEOS9_RKNSJ_6vectorINSJ_12basic_stringIcSQ_NSJ_9allocatorIcEEEENSV_ISX_EEEERKSX_, symObjAddr: 0xC128, symBinAddr: 0x10000F758, symSize: 0x5C0 }
  - { offsetInCU: 0xFB013, offset: 0xFB013, size: 0x8, addend: 0x0, symName: __ZN4ROOT3RDF10RInterfaceINS_6Detail3RDF13RJittedFilterEvE10DefineImplIZ16DeclareVariablesIS5_EDaRT_EUlffffE0_NS3_18ExtraArgsForDefine4NoneEdEENSt3__19enable_ifIXsr3std24is_default_constructibleIT1_EE5valueES5_E4typeENSE_17basic_string_viewIcNSE_11char_traitsIcEEEEOS9_RKNSE_6vectorINSE_12basic_stringIcSL_NSE_9allocatorIcEEEENSQ_ISS_EEEERKSS_, symObjAddr: 0xDC98, symBinAddr: 0x1000112C8, symSize: 0x5C0 }
  - { offsetInCU: 0xFCEDB, offset: 0xFCEDB, size: 0x8, addend: 0x0, symName: __ZN4ROOT3RDF10RInterfaceINS_6Detail3RDF13RJittedFilterEvE10DefineImplIZ16DeclareVariablesIS5_EDaRT_EUlRNS_6VecOps4RVecIfEERNSC_IiEEE_NS3_18ExtraArgsForDefine4NoneEfEENSt3__19enable_ifIXsr3std24is_default_constructibleIT1_EE5valueES5_E4typeENSK_17basic_string_viewIcNSK_11char_traitsIcEEEEOS9_RKNSK_6vectorINSK_12basic_stringIcSR_NSK_9allocatorIcEEEENSW_ISY_EEEERKSY_, symObjAddr: 0xEBB0, symBinAddr: 0x1000121E0, symSize: 0x590 }
  - { offsetInCU: 0xFED17, offset: 0xFED17, size: 0x8, addend: 0x0, symName: __ZN4ROOT3RDF10RInterfaceINS_6Detail3RDF13RJittedFilterEvE10DefineImplIZ16DeclareVariablesIS5_EDaRT_EUlRNS_6VecOps4RVecIfEERNSC_IiEEE0_NS3_18ExtraArgsForDefine4NoneEfEENSt3__19enable_ifIXsr3std24is_default_constructibleIT1_EE5valueES5_E4typeENSK_17basic_string_viewIcNSK_11char_traitsIcEEEEOS9_RKNSK_6vectorINSK_12basic_stringIcSR_NSK_9allocatorIcEEEENSW_ISY_EEEERKSY_, symObjAddr: 0x100F0, symBinAddr: 0x100013720, symSize: 0x590 }
  - { offsetInCU: 0x100B53, offset: 0x100B53, size: 0x8, addend: 0x0, symName: __ZN4ROOT3RDF10RInterfaceINS_6Detail3RDF13RJittedFilterEvE10DefineImplIZ16DeclareVariablesIS5_EDaRT_EUlRNS_4Math13LorentzVectorINSB_11PtEtaPhiM4DIdEEEERNS_6VecOps4RVecIiEEE_NS3_18ExtraArgsForDefine4NoneEfEENSt3__19enable_ifIXsr3std24is_default_constructibleIT1_EE5valueES5_E4typeENSO_17basic_string_viewIcNSO_11char_traitsIcEEEEOS9_RKNSO_6vectorINSO_12basic_stringIcSV_NSO_9allocatorIcEEEENS10_IS12_EEEERKS12_, symObjAddr: 0x11064, symBinAddr: 0x100014694, symSize: 0x590 }
  - { offsetInCU: 0x10298F, offset: 0x10298F, size: 0x8, addend: 0x0, symName: __ZN4ROOT3RDF10RInterfaceINS_6Detail3RDF13RJittedFilterEvE10DefineImplIZ16DeclareVariablesIS5_EDaRT_EUlRNS_4Math13LorentzVectorINSB_11PtEtaPhiM4DIdEEEERNS_6VecOps4RVecIiEEE0_NS3_18ExtraArgsForDefine4NoneEfEENSt3__19enable_ifIXsr3std24is_default_constructibleIT1_EE5valueES5_E4typeENSO_17basic_string_viewIcNSO_11char_traitsIcEEEEOS9_RKNSO_6vectorINSO_12basic_stringIcSV_NSO_9allocatorIcEEEENS10_IS12_EEEERKS12_, symObjAddr: 0x1288C, symBinAddr: 0x100015EBC, symSize: 0x590 }
  - { offsetInCU: 0x1047CB, offset: 0x1047CB, size: 0x8, addend: 0x0, symName: __ZN4ROOT3RDF10RInterfaceINS_6Detail3RDF13RJittedFilterEvE10DefineImplIZ16DeclareVariablesIS5_EDaRT_EUlffRNS_6VecOps4RVecIiEEE_NS3_18ExtraArgsForDefine4NoneEfEENSt3__19enable_ifIXsr3std24is_default_constructibleIT1_EE5valueES5_E4typeENSI_17basic_string_viewIcNSI_11char_traitsIcEEEEOS9_RKNSI_6vectorINSI_12basic_stringIcSP_NSI_9allocatorIcEEEENSU_ISW_EEEERKSW_, symObjAddr: 0x13798, symBinAddr: 0x100016DC8, symSize: 0x5A8 }
  - { offsetInCU: 0x1066E1, offset: 0x1066E1, size: 0x8, addend: 0x0, symName: __ZN4ROOT3RDF10RInterfaceINS_6Detail3RDF13RJittedFilterEvE10DefineImplIZ14AddEventWeightIS5_EDaRT_RKNSt3__112basic_stringIcNSB_11char_traitsIcEENSB_9allocatorIcEEEEffffEUlvE_NS3_18ExtraArgsForDefine4NoneEdEENSB_9enable_ifIXsr3std24is_default_constructibleIT1_EE5valueES5_E4typeENSB_17basic_string_viewIcSE_EEOS9_RKNSB_6vectorISH_NSF_ISH_EEEESJ_, symObjAddr: 0x1476C, symBinAddr: 0x100017D9C, symSize: 0x544 }
  - { offsetInCU: 0x108419, offset: 0x108419, size: 0x8, addend: 0x0, symName: __ZN4ROOT3RDF10RInterfaceINS_6Detail3RDF13RJittedFilterEvE10DefineImplIZ14AddEventWeightIS5_EDaRT_RKNSt3__112basic_stringIcNSB_11char_traitsIcEENSB_9allocatorIcEEEEffffEUlvE0_NS3_18ExtraArgsForDefine4NoneEfEENSB_9enable_ifIXsr3std24is_default_constructibleIT1_EE5valueES5_E4typeENSB_17basic_string_viewIcSE_EEOS9_RKNSB_6vectorISH_NSF_ISH_EEEESJ_, symObjAddr: 0x15458, symBinAddr: 0x100018A88, symSize: 0x544 }
  - { offsetInCU: 0x10A78D, offset: 0x10A78D, size: 0x8, addend: 0x0, symName: __ZN4ROOT8Internal3RDF7RActionINS1_12ReportHelperINS_6Detail3RDF13RJittedFilterEEES6_NS_10TypeTraits8TypeListIJEEEEC2EOS7_RKNSt3__16vectorINSD_12basic_stringIcNSD_11char_traitsIcEENSD_9allocatorIcEEEENSI_ISK_EEEENSD_10shared_ptrIS6_EERKNS1_15RColumnRegisterE, symObjAddr: 0x1AD88, symBinAddr: 0x10001E3B8, symSize: 0x178 }
  - { offsetInCU: 0x10AD64, offset: 0x10AD64, size: 0x8, addend: 0x0, symName: __ZNSt3__110shared_ptrIN4ROOT6Detail3RDF13RJittedFilterEED1B7v160006Ev, symObjAddr: 0x5F1C, symBinAddr: 0x10000954C, symSize: 0x60 }
  - { offsetInCU: 0x10ADF8, offset: 0x10ADF8, size: 0x8, addend: 0x0, symName: __ZN4ROOT8Internal3RDF12ReportHelperINS_6Detail3RDF13RJittedFilterEED1Ev, symObjAddr: 0x1AC50, symBinAddr: 0x10001E280, symSize: 0x70 }
  - { offsetInCU: 0x10AEB8, offset: 0x10AEB8, size: 0x8, addend: 0x0, symName: __ZNSt3__110shared_ptrIN4ROOT3RDF14RCutFlowReportEED1B7v160006Ev, symObjAddr: 0x16198, symBinAddr: 0x1000197C8, symSize: 0x60 }
  - { offsetInCU: 0x10BC05, offset: 0x10BC05, size: 0x8, addend: 0x0, symName: __ZNSt3__16vectorINS_12basic_stringIcNS_11char_traitsIcEENS_9allocatorIcEEEENS4_IS6_EEEC2ERKS8_, symObjAddr: 0x6498, symBinAddr: 0x100009AC8, symSize: 0x120 }
  - { offsetInCU: 0x10BF3C, offset: 0x10BF3C, size: 0x8, addend: 0x0, symName: __ZN4ROOT3RDF14RInterfaceBase12CreateActionINS_8Internal3RDF10ActionTags8SnapshotEJNS_6Detail3RDF13RInferredTypeEENS_10RDataFrameENS8_13RJittedFilterENS4_18SnapshotHelperArgsELi0EEENS0_10RResultPtrIT1_EERKNSt3__16vectorINSG_12basic_stringIcNSG_11char_traitsIcEENSG_9allocatorIcEEEENSL_ISN_EEEERKNSG_10shared_ptrISE_EERKNSS_IT3_EERKNSS_IT2_EEi, symObjAddr: 0x1D9CC, symBinAddr: 0x100020FFC, symSize: 0x344 }
  - { offsetInCU: 0x10D022, offset: 0x10D022, size: 0x8, addend: 0x0, symName: __ZN4ROOT3RDF10RResultPtrINS_10RDataFrameEED1Ev, symObjAddr: 0x1DD10, symBinAddr: 0x100021340, symSize: 0x9C }
  - { offsetInCU: 0x10D16A, offset: 0x10D16A, size: 0x8, addend: 0x0, symName: __ZNSt3__110shared_ptrIN4ROOT10RDataFrameEED1B7v160006Ev, symObjAddr: 0x1DDAC, symBinAddr: 0x1000213DC, symSize: 0x60 }
  - { offsetInCU: 0x10D1FE, offset: 0x10D1FE, size: 0x8, addend: 0x0, symName: __ZN4ROOT8Internal3RDF18SnapshotHelperArgsD2Ev, symObjAddr: 0x1DFC8, symBinAddr: 0x1000215F8, symSize: 0xF8 }
  - { offsetInCU: 0x10D8FE, offset: 0x10D8FE, size: 0x8, addend: 0x0, symName: __ZNSt3__110shared_ptrIN4ROOT8Internal3RDF18SnapshotHelperArgsEED1B7v160006Ev, symObjAddr: 0x1DE0C, symBinAddr: 0x10002143C, symSize: 0x60 }
  - { offsetInCU: 0x10D992, offset: 0x10D992, size: 0x8, addend: 0x0, symName: __ZN4ROOT8Internal3RDF14ParsedTreePathD1Ev, symObjAddr: 0x1DE6C, symBinAddr: 0x10002149C, symSize: 0x58 }
  - { offsetInCU: 0x10DBE5, offset: 0x10DBE5, size: 0x8, addend: 0x0, symName: __ZNSt3__14pairINS_6vectorINS_12basic_stringIcNS_11char_traitsIcEENS_9allocatorIcEEEENS5_IS7_EEEES9_ED1Ev, symObjAddr: 0x1DEC4, symBinAddr: 0x1000214F4, symSize: 0xC0 }
  - { offsetInCU: 0x10E391, offset: 0x10E391, size: 0x8, addend: 0x0, symName: __ZNSt3__110shared_ptrIN4ROOT6Detail3RDF9RNodeBaseEED1B7v160006Ev, symObjAddr: 0x5EBC, symBinAddr: 0x1000094EC, symSize: 0x60 }
  - { offsetInCU: 0x10E425, offset: 0x10E425, size: 0x8, addend: 0x0, symName: __ZN4ROOT3RDF10RInterfaceINS_6Detail3RDF9RNodeBaseEvED1Ev, symObjAddr: 0x5F7C, symBinAddr: 0x1000095AC, symSize: 0x70 }
  - { offsetInCU: 0x10E675, offset: 0x10E675, size: 0x8, addend: 0x0, symName: __ZNSt3__110shared_ptrIN4ROOT6Detail3RDF11RDefineBaseEED1B7v160006Ev, symObjAddr: 0x63D8, symBinAddr: 0x100009A08, symSize: 0x60 }
  - { offsetInCU: 0x10E709, offset: 0x10E709, size: 0x8, addend: 0x0, symName: __ZNSt3__110shared_ptrIN4ROOT6Detail3RDF13RJittedDefineEED1B7v160006Ev, symObjAddr: 0x6438, symBinAddr: 0x100009A68, symSize: 0x60 }
  - { offsetInCU: 0x10E90B, offset: 0x10E90B, size: 0x8, addend: 0x0, symName: __ZNSt3__128__exception_guard_exceptionsINS_29_AllocatorDestroyRangeReverseINS_9allocatorINS_12basic_stringIcNS_11char_traitsIcEENS2_IcEEEEEEPS7_EEED1B7v160006Ev, symObjAddr: 0x6700, symBinAddr: 0x100009D30, symSize: 0x68 }
  - { offsetInCU: 0x10EB32, offset: 0x10EB32, size: 0x8, addend: 0x0, symName: __ZNSt3__128__exception_guard_exceptionsINS_6vectorINS_12basic_stringIcNS_11char_traitsIcEENS_9allocatorIcEEEENS5_IS7_EEE16__destroy_vectorEED1B7v160006Ev, symObjAddr: 0x65B8, symBinAddr: 0x100009BE8, symSize: 0x98 }
  - { offsetInCU: 0x10EDDD, offset: 0x10EDDD, size: 0x8, addend: 0x0, symName: __ZNSt12length_errorC1B7v160006EPKc, symObjAddr: 0x66B4, symBinAddr: 0x100009CE4, symSize: 0x24 }
  - { offsetInCU: 0x10F2F4, offset: 0x10F2F4, size: 0x8, addend: 0x0, symName: __ZNSt3__120__shared_ptr_emplaceIN4ROOT6Detail3RDF7RDefineIZ15FindMuonTauPairINS1_3RDF10RInterfaceINS3_13RJittedFilterEvEEEDaRT_EUlRNS1_6VecOps4RVecIiEERNSE_IfEESI_SI_SG_SI_SI_SI_E_NS3_18ExtraArgsForDefine4NoneEEENS_9allocatorISM_EEEC2B7v160006IJRNS_17basic_string_viewIcNS_11char_traitsIcEEEERNS_12basic_stringIcST_NSN_IcEEEESJ_RKNS_6vectorISY_NSN_ISY_EEEERNS1_8Internal3RDF15RColumnRegisterERNS3_12RLoopManagerEEEESO_DpOT_, symObjAddr: 0x7BC0, symBinAddr: 0x10000B1F0, symSize: 0xE4 }
  - { offsetInCU: 0x10F8CA, offset: 0x10F8CA, size: 0x8, addend: 0x0, symName: __ZNSt3__110shared_ptrIN4ROOT6Detail3RDF7RDefineIZ15FindMuonTauPairINS1_3RDF10RInterfaceINS3_13RJittedFilterEvEEEDaRT_EUlRNS1_6VecOps4RVecIiEERNSE_IfEESI_SI_SG_SI_SI_SI_E_NS3_18ExtraArgsForDefine4NoneEEEED1B7v160006Ev, symObjAddr: 0x6D88, symBinAddr: 0x10000A3B8, symSize: 0x60 }
  - { offsetInCU: 0x110163, offset: 0x110163, size: 0x8, addend: 0x0, symName: __ZNSt3__16vectorINS_10unique_ptrIN4ROOT6Detail3RDF17RColumnReaderBaseENS_14default_deleteIS5_EEEENS_9allocatorIS8_EEE7reserveEm, symObjAddr: 0x73B8, symBinAddr: 0x10000A9E8, symSize: 0xE8 }
  - { offsetInCU: 0x110625, offset: 0x110625, size: 0x8, addend: 0x0, symName: __ZN4ROOT3RDF11RDataSource16GetColumnReadersINS_6VecOps4RVecIiEEEENSt3__16vectorIPPT_NS6_9allocatorISA_EEEENS6_17basic_string_viewIcNS6_11char_traitsIcEEEE, symObjAddr: 0x74A0, symBinAddr: 0x10000AAD0, symSize: 0x164 }
  - { offsetInCU: 0x110637, offset: 0x110637, size: 0x8, addend: 0x0, symName: __ZN4ROOT3RDF11RDataSource16GetColumnReadersINS_6VecOps4RVecIiEEEENSt3__16vectorIPPT_NS6_9allocatorISA_EEEENS6_17basic_string_viewIcNS6_11char_traitsIcEEEE, symObjAddr: 0x74A0, symBinAddr: 0x10000AAD0, symSize: 0x164 }
  - { offsetInCU: 0x110C56, offset: 0x110C56, size: 0x8, addend: 0x0, symName: __ZNSt3__16vectorINS_10unique_ptrIN4ROOT6Detail3RDF17RColumnReaderBaseENS_14default_deleteIS5_EEEENS_9allocatorIS8_EEE24__emplace_back_slow_pathIJPNS2_8Internal3RDF15RDSColumnReaderINS2_6VecOps4RVecIiEEEEEEEvDpOT_, symObjAddr: 0x76A0, symBinAddr: 0x10000ACD0, symSize: 0x12C }
  - { offsetInCU: 0x11126F, offset: 0x11126F, size: 0x8, addend: 0x0, symName: __ZN4ROOT8Internal3RDF15RDSColumnReaderINS_6VecOps4RVecIiEEED1Ev, symObjAddr: 0x77CC, symBinAddr: 0x10000ADFC, symSize: 0x4 }
  - { offsetInCU: 0x111285, offset: 0x111285, size: 0x8, addend: 0x0, symName: __ZNSt3__16vectorINS_10unique_ptrIN4ROOT6Detail3RDF17RColumnReaderBaseENS_14default_deleteIS5_EEEENS_9allocatorIS8_EEE24__emplace_back_slow_pathIJS8_EEEvDpOT_, symObjAddr: 0x77E0, symBinAddr: 0x10000AE10, symSize: 0x128 }
  - { offsetInCU: 0x1118C3, offset: 0x1118C3, size: 0x8, addend: 0x0, symName: __ZN4ROOT3RDF11RDataSource16GetColumnReadersINS_6VecOps4RVecIfEEEENSt3__16vectorIPPT_NS6_9allocatorISA_EEEENS6_17basic_string_viewIcNS6_11char_traitsIcEEEE, symObjAddr: 0x7908, symBinAddr: 0x10000AF38, symSize: 0x164 }
  - { offsetInCU: 0x1118D9, offset: 0x1118D9, size: 0x8, addend: 0x0, symName: __ZNSt3__16vectorINS_10unique_ptrIN4ROOT6Detail3RDF17RColumnReaderBaseENS_14default_deleteIS5_EEEENS_9allocatorIS8_EEED1B7v160006Ev, symObjAddr: 0x7604, symBinAddr: 0x10000AC34, symSize: 0x74 }
  - { offsetInCU: 0x111D7E, offset: 0x111D7E, size: 0x8, addend: 0x0, symName: __ZN4ROOT3RDF11RDataSource16GetColumnReadersINS_6VecOps4RVecIfEEEENSt3__16vectorIPPT_NS6_9allocatorISA_EEEENS6_17basic_string_viewIcNS6_11char_traitsIcEEEE, symObjAddr: 0x7908, symBinAddr: 0x10000AF38, symSize: 0x164 }
  - { offsetInCU: 0x11239D, offset: 0x11239D, size: 0x8, addend: 0x0, symName: __ZNSt3__16vectorINS_10unique_ptrIN4ROOT6Detail3RDF17RColumnReaderBaseENS_14default_deleteIS5_EEEENS_9allocatorIS8_EEE24__emplace_back_slow_pathIJPNS2_8Internal3RDF15RDSColumnReaderINS2_6VecOps4RVecIfEEEEEEEvDpOT_, symObjAddr: 0x7A80, symBinAddr: 0x10000B0B0, symSize: 0x12C }
  - { offsetInCU: 0x1129B6, offset: 0x1129B6, size: 0x8, addend: 0x0, symName: __ZN4ROOT8Internal3RDF15RDSColumnReaderINS_6VecOps4RVecIfEEED1Ev, symObjAddr: 0x7BAC, symBinAddr: 0x10000B1DC, symSize: 0x4 }
  - { offsetInCU: 0x112B6B, offset: 0x112B6B, size: 0x8, addend: 0x0, symName: __ZNKSt3__16vectorINS_10unique_ptrIN4ROOT6Detail3RDF17RColumnReaderBaseENS_14default_deleteIS5_EEEENS_9allocatorIS8_EEE20__throw_length_errorB7v160006Ev, symObjAddr: 0x7678, symBinAddr: 0x10000ACA8, symSize: 0x14 }
  - { offsetInCU: 0x112B94, offset: 0x112B94, size: 0x8, addend: 0x0, symName: __ZNKSt3__16vectorIPPN4ROOT6VecOps4RVecIiEENS_9allocatorIS6_EEE20__throw_length_errorB7v160006Ev, symObjAddr: 0x768C, symBinAddr: 0x10000ACBC, symSize: 0x14 }
  - { offsetInCU: 0x112E97, offset: 0x112E97, size: 0x8, addend: 0x0, symName: __ZNKSt3__16vectorIPPN4ROOT6VecOps4RVecIiEENS_9allocatorIS6_EEE20__throw_length_errorB7v160006Ev, symObjAddr: 0x768C, symBinAddr: 0x10000ACBC, symSize: 0x14 }
  - { offsetInCU: 0x112EC0, offset: 0x112EC0, size: 0x8, addend: 0x0, symName: __ZNSt3__16vectorINS_10unique_ptrIN4ROOT6Detail3RDF17RColumnReaderBaseENS_14default_deleteIS5_EEEENS_9allocatorIS8_EEE24__emplace_back_slow_pathIJPNS2_8Internal3RDF15RDSColumnReaderINS2_6VecOps4RVecIiEEEEEEEvDpOT_, symObjAddr: 0x76A0, symBinAddr: 0x10000ACD0, symSize: 0x12C }
  - { offsetInCU: 0x112F0D, offset: 0x112F0D, size: 0x8, addend: 0x0, symName: __ZN4ROOT8Internal3RDF15RDSColumnReaderINS_6VecOps4RVecIiEEED1Ev, symObjAddr: 0x77CC, symBinAddr: 0x10000ADFC, symSize: 0x4 }
  - { offsetInCU: 0x112F39, offset: 0x112F39, size: 0x8, addend: 0x0, symName: __ZN4ROOT8Internal3RDF15RDSColumnReaderINS_6VecOps4RVecIiEEED0Ev, symObjAddr: 0x77D0, symBinAddr: 0x10000AE00, symSize: 0x4 }
  - { offsetInCU: 0x112F65, offset: 0x112F65, size: 0x8, addend: 0x0, symName: __ZN4ROOT8Internal3RDF15RDSColumnReaderINS_6VecOps4RVecIiEEE7GetImplEx, symObjAddr: 0x77D4, symBinAddr: 0x10000AE04, symSize: 0xC }
  - { offsetInCU: 0x113181, offset: 0x113181, size: 0x8, addend: 0x0, symName: __ZNKSt3__16vectorIPPN4ROOT6VecOps4RVecIfEENS_9allocatorIS6_EEE20__throw_length_errorB7v160006Ev, symObjAddr: 0x7A6C, symBinAddr: 0x10000B09C, symSize: 0x14 }
  - { offsetInCU: 0x1131AA, offset: 0x1131AA, size: 0x8, addend: 0x0, symName: __ZNSt3__16vectorINS_10unique_ptrIN4ROOT6Detail3RDF17RColumnReaderBaseENS_14default_deleteIS5_EEEENS_9allocatorIS8_EEE24__emplace_back_slow_pathIJPNS2_8Internal3RDF15RDSColumnReaderINS2_6VecOps4RVecIfEEEEEEEvDpOT_, symObjAddr: 0x7A80, symBinAddr: 0x10000B0B0, symSize: 0x12C }
  - { offsetInCU: 0x1131B5, offset: 0x1131B5, size: 0x8, addend: 0x0, symName: __ZN4ROOT8Internal3RDF15RDSColumnReaderINS_6VecOps4RVecIfEEED1Ev, symObjAddr: 0x7BAC, symBinAddr: 0x10000B1DC, symSize: 0x4 }
  - { offsetInCU: 0x1131E1, offset: 0x1131E1, size: 0x8, addend: 0x0, symName: __ZN4ROOT8Internal3RDF15RDSColumnReaderINS_6VecOps4RVecIfEEED0Ev, symObjAddr: 0x7BB0, symBinAddr: 0x10000B1E0, symSize: 0x4 }
  - { offsetInCU: 0x11320D, offset: 0x11320D, size: 0x8, addend: 0x0, symName: __ZN4ROOT8Internal3RDF15RDSColumnReaderINS_6VecOps4RVecIfEEE7GetImplEx, symObjAddr: 0x7BB4, symBinAddr: 0x10000B1E4, symSize: 0xC }
  - { offsetInCU: 0x1132CB, offset: 0x1132CB, size: 0x8, addend: 0x0, symName: __ZN4ROOT6Detail3RDF7RDefineIZ15FindMuonTauPairINS_3RDF10RInterfaceINS1_13RJittedFilterEvEEEDaRT_EUlRNS_6VecOps4RVecIiEERNSC_IfEESG_SG_SE_SG_SG_SG_E_NS1_18ExtraArgsForDefine4NoneEEC2ENSt3__117basic_string_viewIcNSL_11char_traitsIcEEEESP_SH_RKNSL_6vectorINSL_12basic_stringIcSO_NSL_9allocatorIcEEEENSS_ISU_EEEERKNS_8Internal3RDF15RColumnRegisterERNS1_12RLoopManagerERKSU_, symObjAddr: 0x7CE8, symBinAddr: 0x10000B318, symSize: 0x120 }
  - { offsetInCU: 0x113803, offset: 0x113803, size: 0x8, addend: 0x0, symName: __ZNSt3__120__shared_ptr_emplaceIN4ROOT6Detail3RDF7RDefineIZ15FindMuonTauPairINS1_3RDF10RInterfaceINS3_13RJittedFilterEvEEEDaRT_EUlRNS1_6VecOps4RVecIiEERNSE_IfEESI_SI_SG_SI_SI_SI_E_NS3_18ExtraArgsForDefine4NoneEEENS_9allocatorISM_EEED1Ev, symObjAddr: 0x7CA4, symBinAddr: 0x10000B2D4, symSize: 0x14 }
  - { offsetInCU: 0x113825, offset: 0x113825, size: 0x8, addend: 0x0, symName: __ZNSt3__120__shared_ptr_emplaceIN4ROOT6Detail3RDF7RDefineIZ15FindMuonTauPairINS1_3RDF10RInterfaceINS3_13RJittedFilterEvEEEDaRT_EUlRNS1_6VecOps4RVecIiEERNSE_IfEESI_SI_SG_SI_SI_SI_E_NS3_18ExtraArgsForDefine4NoneEEENS_9allocatorISM_EEED1Ev, symObjAddr: 0x7CA4, symBinAddr: 0x10000B2D4, symSize: 0x14 }
  - { offsetInCU: 0x11385D, offset: 0x11385D, size: 0x8, addend: 0x0, symName: __ZNSt3__120__shared_ptr_emplaceIN4ROOT6Detail3RDF7RDefineIZ15FindMuonTauPairINS1_3RDF10RInterfaceINS3_13RJittedFilterEvEEEDaRT_EUlRNS1_6VecOps4RVecIiEERNSE_IfEESI_SI_SG_SI_SI_SI_E_NS3_18ExtraArgsForDefine4NoneEEENS_9allocatorISM_EEED0Ev, symObjAddr: 0x7CB8, symBinAddr: 0x10000B2E8, symSize: 0x24 }
  - { offsetInCU: 0x1138DD, offset: 0x1138DD, size: 0x8, addend: 0x0, symName: __ZNSt3__120__shared_ptr_emplaceIN4ROOT6Detail3RDF7RDefineIZ15FindMuonTauPairINS1_3RDF10RInterfaceINS3_13RJittedFilterEvEEEDaRT_EUlRNS1_6VecOps4RVecIiEERNSE_IfEESI_SI_SG_SI_SI_SI_E_NS3_18ExtraArgsForDefine4NoneEEENS_9allocatorISM_EEE16__on_zero_sharedEv, symObjAddr: 0x7CDC, symBinAddr: 0x10000B30C, symSize: 0x8 }
  - { offsetInCU: 0x113906, offset: 0x113906, size: 0x8, addend: 0x0, symName: __ZNSt3__120__shared_ptr_emplaceIN4ROOT6Detail3RDF7RDefineIZ15FindMuonTauPairINS1_3RDF10RInterfaceINS3_13RJittedFilterEvEEEDaRT_EUlRNS1_6VecOps4RVecIiEERNSE_IfEESI_SI_SG_SI_SI_SI_E_NS3_18ExtraArgsForDefine4NoneEEENS_9allocatorISM_EEE16__on_zero_sharedEv, symObjAddr: 0x7CDC, symBinAddr: 0x10000B30C, symSize: 0x8 }
  - { offsetInCU: 0x11394C, offset: 0x11394C, size: 0x8, addend: 0x0, symName: __ZN4ROOT6Detail3RDF7RDefineIZ15FindMuonTauPairINS_3RDF10RInterfaceINS1_13RJittedFilterEvEEEDaRT_EUlRNS_6VecOps4RVecIiEERNSC_IfEESG_SG_SE_SG_SG_SG_E_NS1_18ExtraArgsForDefine4NoneEED2Ev, symObjAddr: 0x8444, symBinAddr: 0x10000BA74, symSize: 0xEC }
  - { offsetInCU: 0x114239, offset: 0x114239, size: 0x8, addend: 0x0, symName: __ZNSt3__120__shared_ptr_emplaceIN4ROOT6Detail3RDF7RDefineIZ15FindMuonTauPairINS1_3RDF10RInterfaceINS3_13RJittedFilterEvEEEDaRT_EUlRNS1_6VecOps4RVecIiEERNSE_IfEESI_SI_SG_SI_SI_SI_E_NS3_18ExtraArgsForDefine4NoneEEENS_9allocatorISM_EEE21__on_zero_shared_weakEv, symObjAddr: 0x7CE4, symBinAddr: 0x10000B314, symSize: 0x4 }
  - { offsetInCU: 0x11426C, offset: 0x11426C, size: 0x8, addend: 0x0, symName: __ZNSt3__120__shared_ptr_emplaceIN4ROOT6Detail3RDF7RDefineIZ15FindMuonTauPairINS1_3RDF10RInterfaceINS3_13RJittedFilterEvEEEDaRT_EUlRNS1_6VecOps4RVecIiEERNSE_IfEESI_SI_SG_SI_SI_SI_E_NS3_18ExtraArgsForDefine4NoneEEENS_9allocatorISM_EEE21__on_zero_shared_weakEv, symObjAddr: 0x7CE4, symBinAddr: 0x10000B314, symSize: 0x4 }
  - { offsetInCU: 0x11428E, offset: 0x11428E, size: 0x8, addend: 0x0, symName: __ZNSt3__120__shared_ptr_emplaceIN4ROOT6Detail3RDF7RDefineIZ15FindMuonTauPairINS1_3RDF10RInterfaceINS3_13RJittedFilterEvEEEDaRT_EUlRNS1_6VecOps4RVecIiEERNSE_IfEESI_SI_SG_SI_SI_SI_E_NS3_18ExtraArgsForDefine4NoneEEENS_9allocatorISM_EEE21__on_zero_shared_weakEv, symObjAddr: 0x7CE4, symBinAddr: 0x10000B314, symSize: 0x4 }
  - { offsetInCU: 0x1142B0, offset: 0x1142B0, size: 0x8, addend: 0x0, symName: __ZNSt3__120__shared_ptr_emplaceIN4ROOT6Detail3RDF7RDefineIZ15FindMuonTauPairINS1_3RDF10RInterfaceINS3_13RJittedFilterEvEEEDaRT_EUlRNS1_6VecOps4RVecIiEERNSE_IfEESI_SI_SG_SI_SI_SI_E_NS3_18ExtraArgsForDefine4NoneEEENS_9allocatorISM_EEE21__on_zero_shared_weakEv, symObjAddr: 0x7CE4, symBinAddr: 0x10000B314, symSize: 0x4 }
  - { offsetInCU: 0x1142DD, offset: 0x1142DD, size: 0x8, addend: 0x0, symName: __ZNSt3__120__shared_ptr_emplaceIN4ROOT6Detail3RDF7RDefineIZ15FindMuonTauPairINS1_3RDF10RInterfaceINS3_13RJittedFilterEvEEEDaRT_EUlRNS1_6VecOps4RVecIiEERNSE_IfEESI_SI_SG_SI_SI_SI_E_NS3_18ExtraArgsForDefine4NoneEEENS_9allocatorISM_EEE21__on_zero_shared_weakEv, symObjAddr: 0x7CE4, symBinAddr: 0x10000B314, symSize: 0x4 }
  - { offsetInCU: 0x114305, offset: 0x114305, size: 0x8, addend: 0x0, symName: __ZNSt3__120__shared_ptr_emplaceIN4ROOT6Detail3RDF7RDefineIZ15FindMuonTauPairINS1_3RDF10RInterfaceINS3_13RJittedFilterEvEEEDaRT_EUlRNS1_6VecOps4RVecIiEERNSE_IfEESI_SI_SG_SI_SI_SI_E_NS3_18ExtraArgsForDefine4NoneEEENS_9allocatorISM_EEE21__on_zero_shared_weakEv, symObjAddr: 0x7CE4, symBinAddr: 0x10000B314, symSize: 0x4 }
  - { offsetInCU: 0x1147AC, offset: 0x1147AC, size: 0x8, addend: 0x0, symName: __ZNSt3__16vectorINS0_IiNS_9allocatorIiEEEENS1_IS3_EEEC1Em, symObjAddr: 0x7E08, symBinAddr: 0x10000B438, symSize: 0xCC }
  - { offsetInCU: 0x114A13, offset: 0x114A13, size: 0x8, addend: 0x0, symName: __ZNSt3__113unordered_mapINS_12basic_stringIcNS_11char_traitsIcEENS_9allocatorIcEEEENS_10unique_ptrIN4ROOT6Detail3RDF11RDefineBaseENS_14default_deleteISB_EEEENS_4hashIS6_EENS_8equal_toIS6_EENS4_INS_4pairIKS6_SE_EEEEED1B7v160006Ev, symObjAddr: 0x7ED4, symBinAddr: 0x10000B504, symSize: 0x80 }
  - { offsetInCU: 0x114EE3, offset: 0x114EE3, size: 0x8, addend: 0x0, symName: __ZNSt3__16vectorINS0_IiNS_9allocatorIiEEEENS1_IS3_EEED1B7v160006Ev, symObjAddr: 0x7F54, symBinAddr: 0x10000B584, symSize: 0x74 }
  - { offsetInCU: 0x1153D8, offset: 0x1153D8, size: 0x8, addend: 0x0, symName: __ZNKSt3__16vectorINS0_IiNS_9allocatorIiEEEENS1_IS3_EEE20__throw_length_errorB7v160006Ev, symObjAddr: 0x8430, symBinAddr: 0x10000BA60, symSize: 0x14 }
  - { offsetInCU: 0x115401, offset: 0x115401, size: 0x8, addend: 0x0, symName: __ZN4ROOT6Detail3RDF7RDefineIZ15FindMuonTauPairINS_3RDF10RInterfaceINS1_13RJittedFilterEvEEEDaRT_EUlRNS_6VecOps4RVecIiEERNSC_IfEESG_SG_SE_SG_SG_SG_E_NS1_18ExtraArgsForDefine4NoneEED2Ev, symObjAddr: 0x8444, symBinAddr: 0x10000BA74, symSize: 0xEC }
  - { offsetInCU: 0x11540C, offset: 0x11540C, size: 0x8, addend: 0x0, symName: __ZNSt3__16vectorINS0_IiNS_9allocatorIiEEEENS1_IS3_EEEC1Em.cold.1, symObjAddr: 0x1E204, symBinAddr: 0x100022354, symSize: 0x4C }
  - { offsetInCU: 0x115B8B, offset: 0x115B8B, size: 0x8, addend: 0x0, symName: __ZN4ROOT6Detail3RDF7RDefineIZ15FindMuonTauPairINS_3RDF10RInterfaceINS1_13RJittedFilterEvEEEDaRT_EUlRNS_6VecOps4RVecIiEERNSC_IfEESG_SG_SE_SG_SG_SG_E_NS1_18ExtraArgsForDefine4NoneEED1Ev, symObjAddr: 0x7FC8, symBinAddr: 0x10000B5F8, symSize: 0x4 }
  - { offsetInCU: 0x115BAE, offset: 0x115BAE, size: 0x8, addend: 0x0, symName: __ZN4ROOT6Detail3RDF7RDefineIZ15FindMuonTauPairINS_3RDF10RInterfaceINS1_13RJittedFilterEvEEEDaRT_EUlRNS_6VecOps4RVecIiEERNSC_IfEESG_SG_SE_SG_SG_SG_E_NS1_18ExtraArgsForDefine4NoneEED1Ev, symObjAddr: 0x7FC8, symBinAddr: 0x10000B5F8, symSize: 0x4 }
  - { offsetInCU: 0x115BC1, offset: 0x115BC1, size: 0x8, addend: 0x0, symName: __ZN4ROOT6Detail3RDF7RDefineIZ15FindMuonTauPairINS_3RDF10RInterfaceINS1_13RJittedFilterEvEEEDaRT_EUlRNS_6VecOps4RVecIiEERNSC_IfEESG_SG_SE_SG_SG_SG_E_NS1_18ExtraArgsForDefine4NoneEED0Ev, symObjAddr: 0x7FCC, symBinAddr: 0x10000B5FC, symSize: 0x14 }
  - { offsetInCU: 0x115C95, offset: 0x115C95, size: 0x8, addend: 0x0, symName: __ZN4ROOT6Detail3RDF7RDefineIZ15FindMuonTauPairINS_3RDF10RInterfaceINS1_13RJittedFilterEvEEEDaRT_EUlRNS_6VecOps4RVecIiEERNSC_IfEESG_SG_SE_SG_SG_SG_E_NS1_18ExtraArgsForDefine4NoneEE8InitSlotEP11TTreeReaderj, symObjAddr: 0x7FE0, symBinAddr: 0x10000B610, symSize: 0x7C }
  - { offsetInCU: 0x115DAF, offset: 0x115DAF, size: 0x8, addend: 0x0, symName: __ZN4ROOT6Detail3RDF7RDefineIZ15FindMuonTauPairINS_3RDF10RInterfaceINS1_13RJittedFilterEvEEEDaRT_EUlRNS_6VecOps4RVecIiEERNSC_IfEESG_SG_SE_SG_SG_SG_E_NS1_18ExtraArgsForDefine4NoneEE11GetValuePtrEj, symObjAddr: 0x805C, symBinAddr: 0x10000B68C, symSize: 0x10 }
  - { offsetInCU: 0x115DE6, offset: 0x115DE6, size: 0x8, addend: 0x0, symName: __ZN4ROOT6Detail3RDF7RDefineIZ15FindMuonTauPairINS_3RDF10RInterfaceINS1_13RJittedFilterEvEEEDaRT_EUlRNS_6VecOps4RVecIiEERNSC_IfEESG_SG_SE_SG_SG_SG_E_NS1_18ExtraArgsForDefine4NoneEE11GetValuePtrEj, symObjAddr: 0x805C, symBinAddr: 0x10000B68C, symSize: 0x10 }
  - { offsetInCU: 0x115E03, offset: 0x115E03, size: 0x8, addend: 0x0, symName: __ZNK4ROOT6Detail3RDF7RDefineIZ15FindMuonTauPairINS_3RDF10RInterfaceINS1_13RJittedFilterEvEEEDaRT_EUlRNS_6VecOps4RVecIiEERNSC_IfEESG_SG_SE_SG_SG_SG_E_NS1_18ExtraArgsForDefine4NoneEE9GetTypeIdEv, symObjAddr: 0x806C, symBinAddr: 0x10000B69C, symSize: 0xC }
  - { offsetInCU: 0x115E2A, offset: 0x115E2A, size: 0x8, addend: 0x0, symName: __ZN4ROOT6Detail3RDF7RDefineIZ15FindMuonTauPairINS_3RDF10RInterfaceINS1_13RJittedFilterEvEEEDaRT_EUlRNS_6VecOps4RVecIiEERNSC_IfEESG_SG_SE_SG_SG_SG_E_NS1_18ExtraArgsForDefine4NoneEE6UpdateEjx, symObjAddr: 0x8078, symBinAddr: 0x10000B6A8, symSize: 0x4C }
  - { offsetInCU: 0x115EC1, offset: 0x115EC1, size: 0x8, addend: 0x0, symName: __ZN4ROOT6Detail3RDF7RDefineIZ15FindMuonTauPairINS_3RDF10RInterfaceINS1_13RJittedFilterEvEEEDaRT_EUlRNS_6VecOps4RVecIiEERNSC_IfEESG_SG_SE_SG_SG_SG_E_NS1_18ExtraArgsForDefine4NoneEE12UpdateHelperIJSD_SF_SF_SF_SD_SF_SF_SF_EJLm0ELm1ELm2ELm3ELm4ELm5ELm6ELm7EEEEvjxNS_10TypeTraits8TypeListIJDpT_EEENSt3__116integer_sequenceImJXspT0_EEEESJ_, symObjAddr: 0xA82C, symBinAddr: 0x10000DE5C, symSize: 0x1D0 }
  - { offsetInCU: 0x11659D, offset: 0x11659D, size: 0x8, addend: 0x0, symName: __ZN4ROOT6Detail3RDF7RDefineIZ15FindMuonTauPairINS_3RDF10RInterfaceINS1_13RJittedFilterEvEEEDaRT_EUlRNS_6VecOps4RVecIiEERNSC_IfEESG_SG_SE_SG_SG_SG_E_NS1_18ExtraArgsForDefine4NoneEE6UpdateEjRKNS4_11RSampleInfoE, symObjAddr: 0x80C4, symBinAddr: 0x10000B6F4, symSize: 0x4 }
  - { offsetInCU: 0x116619, offset: 0x116619, size: 0x8, addend: 0x0, symName: __ZN4ROOT6Detail3RDF7RDefineIZ15FindMuonTauPairINS_3RDF10RInterfaceINS1_13RJittedFilterEvEEEDaRT_EUlRNS_6VecOps4RVecIiEERNSC_IfEESG_SG_SE_SG_SG_SG_E_NS1_18ExtraArgsForDefine4NoneEE12FinalizeSlotEj, symObjAddr: 0x80C8, symBinAddr: 0x10000B6F8, symSize: 0x58 }
  - { offsetInCU: 0x116841, offset: 0x116841, size: 0x8, addend: 0x0, symName: __ZN4ROOT6Detail3RDF7RDefineIZ15FindMuonTauPairINS_3RDF10RInterfaceINS1_13RJittedFilterEvEEEDaRT_EUlRNS_6VecOps4RVecIiEERNSC_IfEESG_SG_SE_SG_SG_SG_E_NS1_18ExtraArgsForDefine4NoneEE14MakeVariationsERKNSt3__16vectorINSL_12basic_stringIcNSL_11char_traitsIcEENSL_9allocatorIcEEEENSQ_ISS_EEEE, symObjAddr: 0x8120, symBinAddr: 0x10000B750, symSize: 0x208 }
  - { offsetInCU: 0x116D04, offset: 0x116D04, size: 0x8, addend: 0x0, symName: __ZNSt3__112__hash_tableINS_17__hash_value_typeINS_12basic_stringIcNS_11char_traitsIcEENS_9allocatorIcEEEENS_10unique_ptrIN4ROOT6Detail3RDF11RDefineBaseENS_14default_deleteISC_EEEEEENS_22__unordered_map_hasherIS7_SG_NS_4hashIS7_EENS_8equal_toIS7_EELb1EEENS_21__unordered_map_equalIS7_SG_SL_SJ_Lb1EEENS5_ISG_EEE4findIS7_EENS_15__hash_iteratorIPNS_11__hash_nodeISG_PvEEEERKT_, symObjAddr: 0xB3E0, symBinAddr: 0x10000EA10, symSize: 0x25C }
  - { offsetInCU: 0x116FF7, offset: 0x116FF7, size: 0x8, addend: 0x0, symName: __ZNSt3__112__hash_tableINS_17__hash_value_typeINS_12basic_stringIcNS_11char_traitsIcEENS_9allocatorIcEEEENS_10unique_ptrIN4ROOT6Detail3RDF11RDefineBaseENS_14default_deleteISC_EEEEEENS_22__unordered_map_hasherIS7_SG_NS_4hashIS7_EENS_8equal_toIS7_EELb1EEENS_21__unordered_map_equalIS7_SG_SL_SJ_Lb1EEENS5_ISG_EEE25__emplace_unique_key_argsIS7_JRKNS_21piecewise_construct_tENS_5tupleIJRKS7_EEENSV_IJEEEEEENS_4pairINS_15__hash_iteratorIPNS_11__hash_nodeISG_PvEEEEbEERKT_DpOT0_, symObjAddr: 0xBAD8, symBinAddr: 0x10000F108, symSize: 0x440 }
  - { offsetInCU: 0x117891, offset: 0x117891, size: 0x8, addend: 0x0, symName: __ZN4ROOT6Detail3RDF7RDefineIZ15FindMuonTauPairINS_3RDF10RInterfaceINS1_13RJittedFilterEvEEEDaRT_EUlRNS_6VecOps4RVecIiEERNSC_IfEESG_SG_SE_SG_SG_SG_E_NS1_18ExtraArgsForDefine4NoneEE15GetVariedDefineERKNSt3__112basic_stringIcNSL_11char_traitsIcEENSL_9allocatorIcEEEE, symObjAddr: 0x8328, symBinAddr: 0x10000B958, symSize: 0x108 }
  - { offsetInCU: 0x117A21, offset: 0x117A21, size: 0x8, addend: 0x0, symName: __ZNKSt3__16vectorINS0_IiNS_9allocatorIiEEEENS1_IS3_EEE20__throw_length_errorB7v160006Ev, symObjAddr: 0x8430, symBinAddr: 0x10000BA60, symSize: 0x14 }
  - { offsetInCU: 0x117A2C, offset: 0x117A2C, size: 0x8, addend: 0x0, symName: __ZN4ROOT6Detail3RDF7RDefineIZ15FindMuonTauPairINS_3RDF10RInterfaceINS1_13RJittedFilterEvEEEDaRT_EUlRNS_6VecOps4RVecIiEERNSC_IfEESG_SG_SE_SG_SG_SG_E_NS1_18ExtraArgsForDefine4NoneEE15GetVariedDefineERKNSt3__112basic_stringIcNSL_11char_traitsIcEENSL_9allocatorIcEEEE.cold.1, symObjAddr: 0x1E250, symBinAddr: 0x1000223A0, symSize: 0x24 }
  - { offsetInCU: 0x117F7C, offset: 0x117F7C, size: 0x8, addend: 0x0, symName: __ZN4ROOT8Internal3RDF15GetColumnReaderINS_6VecOps4RVecIiEEEEPNS_6Detail3RDF17RColumnReaderBaseEjS9_RNS7_12RLoopManagerEP11TTreeReaderRKNSt3__112basic_stringIcNSE_11char_traitsIcEENSE_9allocatorIcEEEE.cold.1, symObjAddr: 0x1E274, symBinAddr: 0x1000223C4, symSize: 0x24 }
  - { offsetInCU: 0x117F94, offset: 0x117F94, size: 0x8, addend: 0x0, symName: __ZNSt3__110unique_ptrIN4ROOT8Internal3RDF17RTreeColumnReaderINS1_6VecOps4RVecIiEEEENS_14default_deleteIS8_EEED1B7v160006Ev, symObjAddr: 0x8AAC, symBinAddr: 0x10000C0DC, symSize: 0x34 }
  - { offsetInCU: 0x1183CF, offset: 0x1183CF, size: 0x8, addend: 0x0, symName: __ZN4ROOT8Internal3RDF15GetColumnReaderINS_6VecOps4RVecIfEEEEPNS_6Detail3RDF17RColumnReaderBaseEjS9_RNS7_12RLoopManagerEP11TTreeReaderRKNSt3__112basic_stringIcNSE_11char_traitsIcEENSE_9allocatorIcEEEE.cold.1, symObjAddr: 0x1E298, symBinAddr: 0x1000223E8, symSize: 0x24 }
  - { offsetInCU: 0x1183E7, offset: 0x1183E7, size: 0x8, addend: 0x0, symName: __ZNSt3__110unique_ptrIN4ROOT8Internal3RDF17RTreeColumnReaderINS1_6VecOps4RVecIfEEEENS_14default_deleteIS8_EEED1B7v160006Ev, symObjAddr: 0x99A4, symBinAddr: 0x10000CFD4, symSize: 0x34 }
  - { offsetInCU: 0x118531, offset: 0x118531, size: 0x8, addend: 0x0, symName: __ZN4ROOT8Internal3RDF17RTreeColumnReaderINS_6VecOps4RVecIiEEED2Ev, symObjAddr: 0x8F80, symBinAddr: 0x10000C5B0, symSize: 0xC0 }
  - { offsetInCU: 0x1188F5, offset: 0x1188F5, size: 0x8, addend: 0x0, symName: __ZN4ROOT8Internal3RDF17RTreeColumnReaderINS_6VecOps4RVecIiEEED1Ev, symObjAddr: 0x8AE0, symBinAddr: 0x10000C110, symSize: 0x4 }
  - { offsetInCU: 0x118918, offset: 0x118918, size: 0x8, addend: 0x0, symName: __ZN4ROOT8Internal3RDF17RTreeColumnReaderINS_6VecOps4RVecIiEEED1Ev, symObjAddr: 0x8AE0, symBinAddr: 0x10000C110, symSize: 0x4 }
  - { offsetInCU: 0x11892B, offset: 0x11892B, size: 0x8, addend: 0x0, symName: __ZN4ROOT8Internal3RDF17RTreeColumnReaderINS_6VecOps4RVecIiEEED0Ev, symObjAddr: 0x8AE4, symBinAddr: 0x10000C114, symSize: 0x14 }
  - { offsetInCU: 0x118D77, offset: 0x118D77, size: 0x8, addend: 0x0, symName: __ZN4ROOT8Internal3RDF17RTreeColumnReaderINS_6VecOps4RVecIiEEE7GetImplEx, symObjAddr: 0x8AF8, symBinAddr: 0x10000C128, symSize: 0x3D0 }
  - { offsetInCU: 0x119C8F, offset: 0x119C8F, size: 0x8, addend: 0x0, symName: __ZN4ROOT6Detail6VecOps8RVecImplIiE4swapERS3_, symObjAddr: 0x9040, symBinAddr: 0x10000C670, symSize: 0x4A4 }
  - { offsetInCU: 0x11A5AE, offset: 0x11A5AE, size: 0x8, addend: 0x0, symName: __ZN4ROOT6Detail6VecOps8RVecImplIiE6appendIN16TTreeReaderArrayIiE10Iterator_tIS6_EEvEEvT_S9_, symObjAddr: 0x96FC, symBinAddr: 0x10000CD2C, symSize: 0x118 }
  - { offsetInCU: 0x11A805, offset: 0x11A805, size: 0x8, addend: 0x0, symName: __ZNK4ROOT8Internal20TTreeReaderArrayBase13GetReadStatusEv, symObjAddr: 0x8EC8, symBinAddr: 0x10000C4F8, symSize: 0x18 }
  - { offsetInCU: 0x11A82E, offset: 0x11A82E, size: 0x8, addend: 0x0, symName: __ZNK4ROOT8Internal20TTreeReaderArrayBase13GetReadStatusEv, symObjAddr: 0x8EC8, symBinAddr: 0x10000C4F8, symSize: 0x18 }
  - { offsetInCU: 0x11A90C, offset: 0x11A90C, size: 0x8, addend: 0x0, symName: __ZN16TTreeReaderArrayIiED1Ev, symObjAddr: 0x8EE0, symBinAddr: 0x10000C510, symSize: 0x48 }
  - { offsetInCU: 0x11AA21, offset: 0x11AA21, size: 0x8, addend: 0x0, symName: __ZN16TTreeReaderArrayIiED0Ev, symObjAddr: 0x8F28, symBinAddr: 0x10000C558, symSize: 0x4C }
  - { offsetInCU: 0x11AB3D, offset: 0x11AB3D, size: 0x8, addend: 0x0, symName: __ZNK16TTreeReaderArrayIiE18GetDerivedTypeNameEv, symObjAddr: 0x8F74, symBinAddr: 0x10000C5A4, symSize: 0xC }
  - { offsetInCU: 0x11AD40, offset: 0x11AD40, size: 0x8, addend: 0x0, symName: __ZN4ROOT6Detail6VecOps8RVecImplIiEaSEOS3_, symObjAddr: 0x94E4, symBinAddr: 0x10000CB14, symSize: 0x218 }
  - { offsetInCU: 0x11B572, offset: 0x11B572, size: 0x8, addend: 0x0, symName: __ZN4ROOT8Internal3RDF17RTreeColumnReaderINS_6VecOps4RVecIfEEED2Ev, symObjAddr: 0x9E60, symBinAddr: 0x10000D490, symSize: 0xC0 }
  - { offsetInCU: 0x11B936, offset: 0x11B936, size: 0x8, addend: 0x0, symName: __ZN4ROOT8Internal3RDF17RTreeColumnReaderINS_6VecOps4RVecIfEEED1Ev, symObjAddr: 0x99D8, symBinAddr: 0x10000D008, symSize: 0x4 }
  - { offsetInCU: 0x11B959, offset: 0x11B959, size: 0x8, addend: 0x0, symName: __ZN4ROOT8Internal3RDF17RTreeColumnReaderINS_6VecOps4RVecIfEEED1Ev, symObjAddr: 0x99D8, symBinAddr: 0x10000D008, symSize: 0x4 }
  - { offsetInCU: 0x11B96C, offset: 0x11B96C, size: 0x8, addend: 0x0, symName: __ZN4ROOT8Internal3RDF17RTreeColumnReaderINS_6VecOps4RVecIfEEED0Ev, symObjAddr: 0x99DC, symBinAddr: 0x10000D00C, symSize: 0x14 }
  - { offsetInCU: 0x11BCA3, offset: 0x11BCA3, size: 0x8, addend: 0x0, symName: __ZN4ROOT8Internal3RDF17RTreeColumnReaderINS_6VecOps4RVecIfEEE7GetImplEx, symObjAddr: 0x99F0, symBinAddr: 0x10000D020, symSize: 0x3D0 }
  - { offsetInCU: 0x11CBBB, offset: 0x11CBBB, size: 0x8, addend: 0x0, symName: __ZN4ROOT6Detail6VecOps8RVecImplIfE4swapERS3_, symObjAddr: 0x9F20, symBinAddr: 0x10000D550, symSize: 0x44C }
  - { offsetInCU: 0x11D499, offset: 0x11D499, size: 0x8, addend: 0x0, symName: __ZN4ROOT6Detail6VecOps8RVecImplIfE6appendIN16TTreeReaderArrayIfE10Iterator_tIS6_EEvEEvT_S9_, symObjAddr: 0xA584, symBinAddr: 0x10000DBB4, symSize: 0x118 }
  - { offsetInCU: 0x11D6DD, offset: 0x11D6DD, size: 0x8, addend: 0x0, symName: __ZN16TTreeReaderArrayIfED1Ev, symObjAddr: 0x9DC0, symBinAddr: 0x10000D3F0, symSize: 0x48 }
  - { offsetInCU: 0x11D7F2, offset: 0x11D7F2, size: 0x8, addend: 0x0, symName: __ZN16TTreeReaderArrayIfED0Ev, symObjAddr: 0x9E08, symBinAddr: 0x10000D438, symSize: 0x4C }
  - { offsetInCU: 0x11D90E, offset: 0x11D90E, size: 0x8, addend: 0x0, symName: __ZNK16TTreeReaderArrayIfE18GetDerivedTypeNameEv, symObjAddr: 0x9E54, symBinAddr: 0x10000D484, symSize: 0xC }
  - { offsetInCU: 0x11DABE, offset: 0x11DABE, size: 0x8, addend: 0x0, symName: __ZN4ROOT6Detail6VecOps8RVecImplIfEaSEOS3_, symObjAddr: 0xA36C, symBinAddr: 0x10000D99C, symSize: 0x218 }
  - { offsetInCU: 0x11E35D, offset: 0x11E35D, size: 0x8, addend: 0x0, symName: __ZZ15FindMuonTauPairIN4ROOT3RDF10RInterfaceINS0_6Detail3RDF13RJittedFilterEvEEEDaRT_ENKUlRNS0_6VecOps4RVecIiEERNSB_IfEESF_SF_SD_SF_SF_SF_E_clESD_SF_SF_SF_SD_SF_SF_SF_, symObjAddr: 0xA9FC, symBinAddr: 0x10000E02C, symSize: 0x3F4 }
  - { offsetInCU: 0x11F644, offset: 0x11F644, size: 0x8, addend: 0x0, symName: __ZNKSt3__16vectorIiNS_9allocatorIiEEE20__throw_length_errorB7v160006Ev, symObjAddr: 0xB3CC, symBinAddr: 0x10000E9FC, symSize: 0x14 }
  - { offsetInCU: 0x11F66D, offset: 0x11F66D, size: 0x8, addend: 0x0, symName: __ZNSt3__112__hash_tableINS_17__hash_value_typeINS_12basic_stringIcNS_11char_traitsIcEENS_9allocatorIcEEEENS_10unique_ptrIN4ROOT6Detail3RDF11RDefineBaseENS_14default_deleteISC_EEEEEENS_22__unordered_map_hasherIS7_SG_NS_4hashIS7_EENS_8equal_toIS7_EELb1EEENS_21__unordered_map_equalIS7_SG_SL_SJ_Lb1EEENS5_ISG_EEE4findIS7_EENS_15__hash_iteratorIPNS_11__hash_nodeISG_PvEEEERKT_, symObjAddr: 0xB3E0, symBinAddr: 0x10000EA10, symSize: 0x25C }
  - { offsetInCU: 0x11F678, offset: 0x11F678, size: 0x8, addend: 0x0, symName: __ZN4ROOT6VecOps4RVecINS1_ImEEED1Ev, symObjAddr: 0xB1D8, symBinAddr: 0x10000E808, symSize: 0x9C }
  - { offsetInCU: 0x11FA44, offset: 0x11FA44, size: 0x8, addend: 0x0, symName: __ZN4ROOT6Detail6VecOps8RVecImplImE6resizeEm, symObjAddr: 0xB274, symBinAddr: 0x10000E8A4, symSize: 0x158 }
  - { offsetInCU: 0x11FDE8, offset: 0x11FDE8, size: 0x8, addend: 0x0, symName: __ZNSt3__121__murmur2_or_cityhashImLm64EEclEPKvm, symObjAddr: 0xB63C, symBinAddr: 0x10000EC6C, symSize: 0x49C }
  - { offsetInCU: 0x120F30, offset: 0x120F30, size: 0x8, addend: 0x0, symName: __ZNSt3__112__hash_tableINS_17__hash_value_typeINS_12basic_stringIcNS_11char_traitsIcEENS_9allocatorIcEEEENS_10unique_ptrIN4ROOT6Detail3RDF11RDefineBaseENS_14default_deleteISC_EEEEEENS_22__unordered_map_hasherIS7_SG_NS_4hashIS7_EENS_8equal_toIS7_EELb1EEENS_21__unordered_map_equalIS7_SG_SL_SJ_Lb1EEENS5_ISG_EEE11__do_rehashILb1EEEvm, symObjAddr: 0xBF7C, symBinAddr: 0x10000F5AC, symSize: 0x1AC }
  - { offsetInCU: 0x121380, offset: 0x121380, size: 0x8, addend: 0x0, symName: __ZN4ROOT3RDF10RInterfaceINS_6Detail3RDF13RJittedFilterEvE10DefineImplIZ16DeclareVariablesIS5_EDaRT_EUlffffE_NS3_18ExtraArgsForDefine4NoneENS_4Math13LorentzVectorINSE_11PtEtaPhiM4DIdEEEEEENSt3__19enable_ifIXsr3std24is_default_constructibleIT1_EE5valueES5_E4typeENSJ_17basic_string_viewIcNSJ_11char_traitsIcEEEEOS9_RKNSJ_6vectorINSJ_12basic_stringIcSQ_NSJ_9allocatorIcEEEENSV_ISX_EEEERKSX_, symObjAddr: 0xC128, symBinAddr: 0x10000F758, symSize: 0x5C0 }
  - { offsetInCU: 0x121395, offset: 0x121395, size: 0x8, addend: 0x0, symName: __ZNSt3__110unique_ptrINS_11__hash_nodeINS_17__hash_value_typeINS_12basic_stringIcNS_11char_traitsIcEENS_9allocatorIcEEEENS0_IN4ROOT6Detail3RDF11RDefineBaseENS_14default_deleteISC_EEEEEEPvEENS_22__hash_node_destructorINS6_ISI_EEEEED1B7v160006Ev, symObjAddr: 0xBF18, symBinAddr: 0x10000F548, symSize: 0x64 }
  - { offsetInCU: 0x121B73, offset: 0x121B73, size: 0x8, addend: 0x0, symName: __ZNSt3__120__shared_ptr_emplaceIN4ROOT6Detail3RDF7RDefineIZ16DeclareVariablesINS1_3RDF10RInterfaceINS3_13RJittedFilterEvEEEDaRT_EUlffffE_NS3_18ExtraArgsForDefine4NoneEEENS_9allocatorISG_EEEC2B7v160006IJRNS_17basic_string_viewIcNS_11char_traitsIcEEEERNS_12basic_stringIcSN_NSH_IcEEEESD_RKNS_6vectorISS_NSH_ISS_EEEERNS1_8Internal3RDF15RColumnRegisterERNS3_12RLoopManagerEEEESI_DpOT_, symObjAddr: 0xCCE8, symBinAddr: 0x100010318, symSize: 0xE4 }
  - { offsetInCU: 0x122149, offset: 0x122149, size: 0x8, addend: 0x0, symName: __ZNSt3__110shared_ptrIN4ROOT6Detail3RDF7RDefineIZ16DeclareVariablesINS1_3RDF10RInterfaceINS3_13RJittedFilterEvEEEDaRT_EUlffffE_NS3_18ExtraArgsForDefine4NoneEEEED1B7v160006Ev, symObjAddr: 0xC6E8, symBinAddr: 0x10000FD18, symSize: 0x60 }
  - { offsetInCU: 0x122457, offset: 0x122457, size: 0x8, addend: 0x0, symName: __ZN4ROOT3RDF11RDataSource16GetColumnReadersIfEENSt3__16vectorIPPT_NS3_9allocatorIS7_EEEENS3_17basic_string_viewIcNS3_11char_traitsIcEEEE, symObjAddr: 0xCA30, symBinAddr: 0x100010060, symSize: 0x164 }
  - { offsetInCU: 0x122A76, offset: 0x122A76, size: 0x8, addend: 0x0, symName: __ZNSt3__16vectorINS_10unique_ptrIN4ROOT6Detail3RDF17RColumnReaderBaseENS_14default_deleteIS5_EEEENS_9allocatorIS8_EEE24__emplace_back_slow_pathIJPNS2_8Internal3RDF15RDSColumnReaderIfEEEEEvDpOT_, symObjAddr: 0xCBA8, symBinAddr: 0x1000101D8, symSize: 0x12C }
  - { offsetInCU: 0x12308F, offset: 0x12308F, size: 0x8, addend: 0x0, symName: __ZN4ROOT8Internal3RDF15RDSColumnReaderIfED1Ev, symObjAddr: 0xCCD4, symBinAddr: 0x100010304, symSize: 0x4 }
  - { offsetInCU: 0x12328F, offset: 0x12328F, size: 0x8, addend: 0x0, symName: __ZNKSt3__16vectorIPPfNS_9allocatorIS2_EEE20__throw_length_errorB7v160006Ev, symObjAddr: 0xCB94, symBinAddr: 0x1000101C4, symSize: 0x14 }
  - { offsetInCU: 0x1232B8, offset: 0x1232B8, size: 0x8, addend: 0x0, symName: __ZNSt3__16vectorINS_10unique_ptrIN4ROOT6Detail3RDF17RColumnReaderBaseENS_14default_deleteIS5_EEEENS_9allocatorIS8_EEE24__emplace_back_slow_pathIJPNS2_8Internal3RDF15RDSColumnReaderIfEEEEEvDpOT_, symObjAddr: 0xCBA8, symBinAddr: 0x1000101D8, symSize: 0x12C }
  - { offsetInCU: 0x1232C3, offset: 0x1232C3, size: 0x8, addend: 0x0, symName: __ZN4ROOT8Internal3RDF15RDSColumnReaderIfED1Ev, symObjAddr: 0xCCD4, symBinAddr: 0x100010304, symSize: 0x4 }
  - { offsetInCU: 0x1232EF, offset: 0x1232EF, size: 0x8, addend: 0x0, symName: __ZN4ROOT8Internal3RDF15RDSColumnReaderIfED0Ev, symObjAddr: 0xCCD8, symBinAddr: 0x100010308, symSize: 0x4 }
  - { offsetInCU: 0x12331B, offset: 0x12331B, size: 0x8, addend: 0x0, symName: __ZN4ROOT8Internal3RDF15RDSColumnReaderIfE7GetImplEx, symObjAddr: 0xCCDC, symBinAddr: 0x10001030C, symSize: 0xC }
  - { offsetInCU: 0x1233B4, offset: 0x1233B4, size: 0x8, addend: 0x0, symName: __ZN4ROOT6Detail3RDF7RDefineIZ16DeclareVariablesINS_3RDF10RInterfaceINS1_13RJittedFilterEvEEEDaRT_EUlffffE_NS1_18ExtraArgsForDefine4NoneEEC2ENSt3__117basic_string_viewIcNSF_11char_traitsIcEEEESJ_SB_RKNSF_6vectorINSF_12basic_stringIcSI_NSF_9allocatorIcEEEENSM_ISO_EEEERKNS_8Internal3RDF15RColumnRegisterERNS1_12RLoopManagerERKSO_, symObjAddr: 0xCE10, symBinAddr: 0x100010440, symSize: 0x188 }
  - { offsetInCU: 0x123B80, offset: 0x123B80, size: 0x8, addend: 0x0, symName: __ZNSt3__120__shared_ptr_emplaceIN4ROOT6Detail3RDF7RDefineIZ16DeclareVariablesINS1_3RDF10RInterfaceINS3_13RJittedFilterEvEEEDaRT_EUlffffE_NS3_18ExtraArgsForDefine4NoneEEENS_9allocatorISG_EEED1Ev, symObjAddr: 0xCDCC, symBinAddr: 0x1000103FC, symSize: 0x14 }
  - { offsetInCU: 0x123BA2, offset: 0x123BA2, size: 0x8, addend: 0x0, symName: __ZNSt3__120__shared_ptr_emplaceIN4ROOT6Detail3RDF7RDefineIZ16DeclareVariablesINS1_3RDF10RInterfaceINS3_13RJittedFilterEvEEEDaRT_EUlffffE_NS3_18ExtraArgsForDefine4NoneEEENS_9allocatorISG_EEED1Ev, symObjAddr: 0xCDCC, symBinAddr: 0x1000103FC, symSize: 0x14 }
  - { offsetInCU: 0x123BDA, offset: 0x123BDA, size: 0x8, addend: 0x0, symName: __ZNSt3__120__shared_ptr_emplaceIN4ROOT6Detail3RDF7RDefineIZ16DeclareVariablesINS1_3RDF10RInterfaceINS3_13RJittedFilterEvEEEDaRT_EUlffffE_NS3_18ExtraArgsForDefine4NoneEEENS_9allocatorISG_EEED0Ev, symObjAddr: 0xCDE0, symBinAddr: 0x100010410, symSize: 0x24 }
  - { offsetInCU: 0x123C5A, offset: 0x123C5A, size: 0x8, addend: 0x0, symName: __ZNSt3__120__shared_ptr_emplaceIN4ROOT6Detail3RDF7RDefineIZ16DeclareVariablesINS1_3RDF10RInterfaceINS3_13RJittedFilterEvEEEDaRT_EUlffffE_NS3_18ExtraArgsForDefine4NoneEEENS_9allocatorISG_EEE16__on_zero_sharedEv, symObjAddr: 0xCE04, symBinAddr: 0x100010434, symSize: 0x8 }
  - { offsetInCU: 0x123C83, offset: 0x123C83, size: 0x8, addend: 0x0, symName: __ZNSt3__120__shared_ptr_emplaceIN4ROOT6Detail3RDF7RDefineIZ16DeclareVariablesINS1_3RDF10RInterfaceINS3_13RJittedFilterEvEEEDaRT_EUlffffE_NS3_18ExtraArgsForDefine4NoneEEENS_9allocatorISG_EEE16__on_zero_sharedEv, symObjAddr: 0xCE04, symBinAddr: 0x100010434, symSize: 0x8 }
  - { offsetInCU: 0x123CC9, offset: 0x123CC9, size: 0x8, addend: 0x0, symName: __ZN4ROOT6Detail3RDF7RDefineIZ16DeclareVariablesINS_3RDF10RInterfaceINS1_13RJittedFilterEvEEEDaRT_EUlffffE_NS1_18ExtraArgsForDefine4NoneEED2Ev, symObjAddr: 0xD3F8, symBinAddr: 0x100010A28, symSize: 0xB0 }
  - { offsetInCU: 0x12444B, offset: 0x12444B, size: 0x8, addend: 0x0, symName: __ZNSt3__120__shared_ptr_emplaceIN4ROOT6Detail3RDF7RDefineIZ16DeclareVariablesINS1_3RDF10RInterfaceINS3_13RJittedFilterEvEEEDaRT_EUlffffE_NS3_18ExtraArgsForDefine4NoneEEENS_9allocatorISG_EEE21__on_zero_shared_weakEv, symObjAddr: 0xCE0C, symBinAddr: 0x10001043C, symSize: 0x4 }
  - { offsetInCU: 0x12447E, offset: 0x12447E, size: 0x8, addend: 0x0, symName: __ZNSt3__120__shared_ptr_emplaceIN4ROOT6Detail3RDF7RDefineIZ16DeclareVariablesINS1_3RDF10RInterfaceINS3_13RJittedFilterEvEEEDaRT_EUlffffE_NS3_18ExtraArgsForDefine4NoneEEENS_9allocatorISG_EEE21__on_zero_shared_weakEv, symObjAddr: 0xCE0C, symBinAddr: 0x10001043C, symSize: 0x4 }
  - { offsetInCU: 0x1244A0, offset: 0x1244A0, size: 0x8, addend: 0x0, symName: __ZNSt3__120__shared_ptr_emplaceIN4ROOT6Detail3RDF7RDefineIZ16DeclareVariablesINS1_3RDF10RInterfaceINS3_13RJittedFilterEvEEEDaRT_EUlffffE_NS3_18ExtraArgsForDefine4NoneEEENS_9allocatorISG_EEE21__on_zero_shared_weakEv, symObjAddr: 0xCE0C, symBinAddr: 0x10001043C, symSize: 0x4 }
  - { offsetInCU: 0x1244C2, offset: 0x1244C2, size: 0x8, addend: 0x0, symName: __ZNSt3__120__shared_ptr_emplaceIN4ROOT6Detail3RDF7RDefineIZ16DeclareVariablesINS1_3RDF10RInterfaceINS3_13RJittedFilterEvEEEDaRT_EUlffffE_NS3_18ExtraArgsForDefine4NoneEEENS_9allocatorISG_EEE21__on_zero_shared_weakEv, symObjAddr: 0xCE0C, symBinAddr: 0x10001043C, symSize: 0x4 }
  - { offsetInCU: 0x1244EF, offset: 0x1244EF, size: 0x8, addend: 0x0, symName: __ZNSt3__120__shared_ptr_emplaceIN4ROOT6Detail3RDF7RDefineIZ16DeclareVariablesINS1_3RDF10RInterfaceINS3_13RJittedFilterEvEEEDaRT_EUlffffE_NS3_18ExtraArgsForDefine4NoneEEENS_9allocatorISG_EEE21__on_zero_shared_weakEv, symObjAddr: 0xCE0C, symBinAddr: 0x10001043C, symSize: 0x4 }
  - { offsetInCU: 0x124517, offset: 0x124517, size: 0x8, addend: 0x0, symName: __ZNSt3__120__shared_ptr_emplaceIN4ROOT6Detail3RDF7RDefineIZ16DeclareVariablesINS1_3RDF10RInterfaceINS3_13RJittedFilterEvEEEDaRT_EUlffffE_NS3_18ExtraArgsForDefine4NoneEEENS_9allocatorISG_EEE21__on_zero_shared_weakEv, symObjAddr: 0xCE0C, symBinAddr: 0x10001043C, symSize: 0x4 }
  - { offsetInCU: 0x124B01, offset: 0x124B01, size: 0x8, addend: 0x0, symName: __ZN4ROOT6Detail3RDF7RDefineIZ16DeclareVariablesINS_3RDF10RInterfaceINS1_13RJittedFilterEvEEEDaRT_EUlffffE_NS1_18ExtraArgsForDefine4NoneEED1Ev, symObjAddr: 0xCF98, symBinAddr: 0x1000105C8, symSize: 0x4 }
  - { offsetInCU: 0x124B24, offset: 0x124B24, size: 0x8, addend: 0x0, symName: __ZN4ROOT6Detail3RDF7RDefineIZ16DeclareVariablesINS_3RDF10RInterfaceINS1_13RJittedFilterEvEEEDaRT_EUlffffE_NS1_18ExtraArgsForDefine4NoneEED1Ev, symObjAddr: 0xCF98, symBinAddr: 0x1000105C8, symSize: 0x4 }
  - { offsetInCU: 0x124B37, offset: 0x124B37, size: 0x8, addend: 0x0, symName: __ZN4ROOT6Detail3RDF7RDefineIZ16DeclareVariablesINS_3RDF10RInterfaceINS1_13RJittedFilterEvEEEDaRT_EUlffffE_NS1_18ExtraArgsForDefine4NoneEED0Ev, symObjAddr: 0xCF9C, symBinAddr: 0x1000105CC, symSize: 0x14 }
  - { offsetInCU: 0x124BB5, offset: 0x124BB5, size: 0x8, addend: 0x0, symName: __ZN4ROOT6Detail3RDF7RDefineIZ16DeclareVariablesINS_3RDF10RInterfaceINS1_13RJittedFilterEvEEEDaRT_EUlffffE_NS1_18ExtraArgsForDefine4NoneEE8InitSlotEP11TTreeReaderj, symObjAddr: 0xCFB0, symBinAddr: 0x1000105E0, symSize: 0x78 }
  - { offsetInCU: 0x124CD6, offset: 0x124CD6, size: 0x8, addend: 0x0, symName: __ZN4ROOT6Detail3RDF7RDefineIZ16DeclareVariablesINS_3RDF10RInterfaceINS1_13RJittedFilterEvEEEDaRT_EUlffffE_NS1_18ExtraArgsForDefine4NoneEE11GetValuePtrEj, symObjAddr: 0xD028, symBinAddr: 0x100010658, symSize: 0x10 }
  - { offsetInCU: 0x124D2A, offset: 0x124D2A, size: 0x8, addend: 0x0, symName: __ZNK4ROOT6Detail3RDF7RDefineIZ16DeclareVariablesINS_3RDF10RInterfaceINS1_13RJittedFilterEvEEEDaRT_EUlffffE_NS1_18ExtraArgsForDefine4NoneEE9GetTypeIdEv, symObjAddr: 0xD038, symBinAddr: 0x100010668, symSize: 0xC }
  - { offsetInCU: 0x124D51, offset: 0x124D51, size: 0x8, addend: 0x0, symName: __ZN4ROOT6Detail3RDF7RDefineIZ16DeclareVariablesINS_3RDF10RInterfaceINS1_13RJittedFilterEvEEEDaRT_EUlffffE_NS1_18ExtraArgsForDefine4NoneEE6UpdateEjx, symObjAddr: 0xD044, symBinAddr: 0x100010674, symSize: 0x4C }
  - { offsetInCU: 0x124DDD, offset: 0x124DDD, size: 0x8, addend: 0x0, symName: __ZN4ROOT6Detail3RDF7RDefineIZ16DeclareVariablesINS_3RDF10RInterfaceINS1_13RJittedFilterEvEEEDaRT_EUlffffE_NS1_18ExtraArgsForDefine4NoneEE12UpdateHelperIJffffEJLm0ELm1ELm2ELm3EEEEvjxNS_10TypeTraits8TypeListIJDpT_EEENSt3__116integer_sequenceImJXspT0_EEEESD_, symObjAddr: 0xD964, symBinAddr: 0x100010F94, symSize: 0x25C }
  - { offsetInCU: 0x1251BB, offset: 0x1251BB, size: 0x8, addend: 0x0, symName: __ZN4ROOT6Detail3RDF7RDefineIZ16DeclareVariablesINS_3RDF10RInterfaceINS1_13RJittedFilterEvEEEDaRT_EUlffffE_NS1_18ExtraArgsForDefine4NoneEE6UpdateEjRKNS4_11RSampleInfoE, symObjAddr: 0xD090, symBinAddr: 0x1000106C0, symSize: 0x4 }
  - { offsetInCU: 0x125215, offset: 0x125215, size: 0x8, addend: 0x0, symName: __ZN4ROOT6Detail3RDF7RDefineIZ16DeclareVariablesINS_3RDF10RInterfaceINS1_13RJittedFilterEvEEEDaRT_EUlffffE_NS1_18ExtraArgsForDefine4NoneEE12FinalizeSlotEj, symObjAddr: 0xD094, symBinAddr: 0x1000106C4, symSize: 0x54 }
  - { offsetInCU: 0x125358, offset: 0x125358, size: 0x8, addend: 0x0, symName: __ZN4ROOT6Detail3RDF7RDefineIZ16DeclareVariablesINS_3RDF10RInterfaceINS1_13RJittedFilterEvEEEDaRT_EUlffffE_NS1_18ExtraArgsForDefine4NoneEE14MakeVariationsERKNSt3__16vectorINSF_12basic_stringIcNSF_11char_traitsIcEENSF_9allocatorIcEEEENSK_ISM_EEEE, symObjAddr: 0xD0E8, symBinAddr: 0x100010718, symSize: 0x208 }
  - { offsetInCU: 0x12581B, offset: 0x12581B, size: 0x8, addend: 0x0, symName: __ZN4ROOT6Detail3RDF7RDefineIZ16DeclareVariablesINS_3RDF10RInterfaceINS1_13RJittedFilterEvEEEDaRT_EUlffffE_NS1_18ExtraArgsForDefine4NoneEE15GetVariedDefineERKNSt3__112basic_stringIcNSF_11char_traitsIcEENSF_9allocatorIcEEEE, symObjAddr: 0xD2F0, symBinAddr: 0x100010920, symSize: 0x108 }
  - { offsetInCU: 0x1259AB, offset: 0x1259AB, size: 0x8, addend: 0x0, symName: __ZN4ROOT6Detail3RDF7RDefineIZ16DeclareVariablesINS_3RDF10RInterfaceINS1_13RJittedFilterEvEEEDaRT_EUlffffE_NS1_18ExtraArgsForDefine4NoneEED2Ev, symObjAddr: 0xD3F8, symBinAddr: 0x100010A28, symSize: 0xB0 }
  - { offsetInCU: 0x1259B6, offset: 0x1259B6, size: 0x8, addend: 0x0, symName: __ZN4ROOT6Detail3RDF7RDefineIZ16DeclareVariablesINS_3RDF10RInterfaceINS1_13RJittedFilterEvEEEDaRT_EUlffffE_NS1_18ExtraArgsForDefine4NoneEE15GetVariedDefineERKNSt3__112basic_stringIcNSF_11char_traitsIcEENSF_9allocatorIcEEEE.cold.1, symObjAddr: 0x1E2BC, symBinAddr: 0x10002240C, symSize: 0x24 }
  - { offsetInCU: 0x125C48, offset: 0x125C48, size: 0x8, addend: 0x0, symName: __ZN4ROOT8Internal3RDF15GetColumnReaderIfEEPNS_6Detail3RDF17RColumnReaderBaseEjS6_RNS4_12RLoopManagerEP11TTreeReaderRKNSt3__112basic_stringIcNSB_11char_traitsIcEENSB_9allocatorIcEEEE.cold.1, symObjAddr: 0x1E2E0, symBinAddr: 0x100022430, symSize: 0x24 }
  - { offsetInCU: 0x125C60, offset: 0x125C60, size: 0x8, addend: 0x0, symName: __ZNSt3__110unique_ptrIN4ROOT8Internal3RDF17RTreeColumnReaderIfEENS_14default_deleteIS5_EEED1B7v160006Ev, symObjAddr: 0xD74C, symBinAddr: 0x100010D7C, symSize: 0x5C }
  - { offsetInCU: 0x125FDE, offset: 0x125FDE, size: 0x8, addend: 0x0, symName: __ZN4ROOT8Internal3RDF17RTreeColumnReaderIfED1Ev, symObjAddr: 0xD7A8, symBinAddr: 0x100010DD8, symSize: 0x48 }
  - { offsetInCU: 0x126166, offset: 0x126166, size: 0x8, addend: 0x0, symName: __ZN4ROOT8Internal3RDF17RTreeColumnReaderIfED0Ev, symObjAddr: 0xD7F0, symBinAddr: 0x100010E20, symSize: 0x48 }
  - { offsetInCU: 0x126366, offset: 0x126366, size: 0x8, addend: 0x0, symName: __ZN4ROOT8Internal3RDF17RTreeColumnReaderIfE7GetImplEx, symObjAddr: 0xD838, symBinAddr: 0x100010E68, symSize: 0x60 }
  - { offsetInCU: 0x126418, offset: 0x126418, size: 0x8, addend: 0x0, symName: __ZNK4ROOT8Internal20TTreeReaderValueBase13GetReadStatusEv, symObjAddr: 0xD898, symBinAddr: 0x100010EC8, symSize: 0xC }
  - { offsetInCU: 0x12643F, offset: 0x12643F, size: 0x8, addend: 0x0, symName: __ZN16TTreeReaderValueIfED1Ev, symObjAddr: 0xD8A4, symBinAddr: 0x100010ED4, symSize: 0x4 }
  - { offsetInCU: 0x126461, offset: 0x126461, size: 0x8, addend: 0x0, symName: __ZN16TTreeReaderValueIfED1Ev, symObjAddr: 0xD8A4, symBinAddr: 0x100010ED4, symSize: 0x4 }
  - { offsetInCU: 0x12647B, offset: 0x12647B, size: 0x8, addend: 0x0, symName: __ZN16TTreeReaderValueIfED0Ev, symObjAddr: 0xD8A8, symBinAddr: 0x100010ED8, symSize: 0x14 }
  - { offsetInCU: 0x12684B, offset: 0x12684B, size: 0x8, addend: 0x0, symName: __ZN4ROOT4Math19GenVector_exceptionD1Ev, symObjAddr: 0xDC80, symBinAddr: 0x1000112B0, symSize: 0x4 }
  - { offsetInCU: 0x12686D, offset: 0x12686D, size: 0x8, addend: 0x0, symName: __ZN4ROOT4Math19GenVector_exceptionD1Ev, symObjAddr: 0xDC80, symBinAddr: 0x1000112B0, symSize: 0x4 }
  - { offsetInCU: 0x126887, offset: 0x126887, size: 0x8, addend: 0x0, symName: __ZN4ROOT4Math19GenVector_exceptionD0Ev, symObjAddr: 0xDC84, symBinAddr: 0x1000112B4, symSize: 0x14 }
  - { offsetInCU: 0x126C31, offset: 0x126C31, size: 0x8, addend: 0x0, symName: __ZNSt3__120__shared_ptr_emplaceIN4ROOT6Detail3RDF7RDefineIZ16DeclareVariablesINS1_3RDF10RInterfaceINS3_13RJittedFilterEvEEEDaRT_EUlffffE0_NS3_18ExtraArgsForDefine4NoneEEENS_9allocatorISG_EEEC2B7v160006IJRNS_17basic_string_viewIcNS_11char_traitsIcEEEERNS_12basic_stringIcSN_NSH_IcEEEESD_RKNS_6vectorISS_NSH_ISS_EEEERNS1_8Internal3RDF15RColumnRegisterERNS3_12RLoopManagerEEEESI_DpOT_, symObjAddr: 0xE2B8, symBinAddr: 0x1000118E8, symSize: 0xE4 }
  - { offsetInCU: 0x127207, offset: 0x127207, size: 0x8, addend: 0x0, symName: __ZNSt3__110shared_ptrIN4ROOT6Detail3RDF7RDefineIZ16DeclareVariablesINS1_3RDF10RInterfaceINS3_13RJittedFilterEvEEEDaRT_EUlffffE0_NS3_18ExtraArgsForDefine4NoneEEEED1B7v160006Ev, symObjAddr: 0xE258, symBinAddr: 0x100011888, symSize: 0x60 }
  - { offsetInCU: 0x127302, offset: 0x127302, size: 0x8, addend: 0x0, symName: __ZN4ROOT6Detail3RDF7RDefineIZ16DeclareVariablesINS_3RDF10RInterfaceINS1_13RJittedFilterEvEEEDaRT_EUlffffE0_NS1_18ExtraArgsForDefine4NoneEEC2ENSt3__117basic_string_viewIcNSF_11char_traitsIcEEEESJ_SB_RKNSF_6vectorINSF_12basic_stringIcSI_NSF_9allocatorIcEEEENSM_ISO_EEEERKNS_8Internal3RDF15RColumnRegisterERNS1_12RLoopManagerERKSO_, symObjAddr: 0xE3E0, symBinAddr: 0x100011A10, symSize: 0x188 }
  - { offsetInCU: 0x127A79, offset: 0x127A79, size: 0x8, addend: 0x0, symName: __ZNSt3__120__shared_ptr_emplaceIN4ROOT6Detail3RDF7RDefineIZ16DeclareVariablesINS1_3RDF10RInterfaceINS3_13RJittedFilterEvEEEDaRT_EUlffffE0_NS3_18ExtraArgsForDefine4NoneEEENS_9allocatorISG_EEED1Ev, symObjAddr: 0xE39C, symBinAddr: 0x1000119CC, symSize: 0x14 }
  - { offsetInCU: 0x127A9B, offset: 0x127A9B, size: 0x8, addend: 0x0, symName: __ZNSt3__120__shared_ptr_emplaceIN4ROOT6Detail3RDF7RDefineIZ16DeclareVariablesINS1_3RDF10RInterfaceINS3_13RJittedFilterEvEEEDaRT_EUlffffE0_NS3_18ExtraArgsForDefine4NoneEEENS_9allocatorISG_EEED1Ev, symObjAddr: 0xE39C, symBinAddr: 0x1000119CC, symSize: 0x14 }
  - { offsetInCU: 0x127AD3, offset: 0x127AD3, size: 0x8, addend: 0x0, symName: __ZNSt3__120__shared_ptr_emplaceIN4ROOT6Detail3RDF7RDefineIZ16DeclareVariablesINS1_3RDF10RInterfaceINS3_13RJittedFilterEvEEEDaRT_EUlffffE0_NS3_18ExtraArgsForDefine4NoneEEENS_9allocatorISG_EEED0Ev, symObjAddr: 0xE3B0, symBinAddr: 0x1000119E0, symSize: 0x24 }
  - { offsetInCU: 0x127B53, offset: 0x127B53, size: 0x8, addend: 0x0, symName: __ZNSt3__120__shared_ptr_emplaceIN4ROOT6Detail3RDF7RDefineIZ16DeclareVariablesINS1_3RDF10RInterfaceINS3_13RJittedFilterEvEEEDaRT_EUlffffE0_NS3_18ExtraArgsForDefine4NoneEEENS_9allocatorISG_EEE16__on_zero_sharedEv, symObjAddr: 0xE3D4, symBinAddr: 0x100011A04, symSize: 0x8 }
  - { offsetInCU: 0x127B7C, offset: 0x127B7C, size: 0x8, addend: 0x0, symName: __ZNSt3__120__shared_ptr_emplaceIN4ROOT6Detail3RDF7RDefineIZ16DeclareVariablesINS1_3RDF10RInterfaceINS3_13RJittedFilterEvEEEDaRT_EUlffffE0_NS3_18ExtraArgsForDefine4NoneEEENS_9allocatorISG_EEE16__on_zero_sharedEv, symObjAddr: 0xE3D4, symBinAddr: 0x100011A04, symSize: 0x8 }
  - { offsetInCU: 0x127BC2, offset: 0x127BC2, size: 0x8, addend: 0x0, symName: __ZN4ROOT6Detail3RDF7RDefineIZ16DeclareVariablesINS_3RDF10RInterfaceINS1_13RJittedFilterEvEEEDaRT_EUlffffE0_NS1_18ExtraArgsForDefine4NoneEED2Ev, symObjAddr: 0xEB00, symBinAddr: 0x100012130, symSize: 0xB0 }
  - { offsetInCU: 0x128344, offset: 0x128344, size: 0x8, addend: 0x0, symName: __ZNSt3__120__shared_ptr_emplaceIN4ROOT6Detail3RDF7RDefineIZ16DeclareVariablesINS1_3RDF10RInterfaceINS3_13RJittedFilterEvEEEDaRT_EUlffffE0_NS3_18ExtraArgsForDefine4NoneEEENS_9allocatorISG_EEE21__on_zero_shared_weakEv, symObjAddr: 0xE3DC, symBinAddr: 0x100011A0C, symSize: 0x4 }
  - { offsetInCU: 0x128377, offset: 0x128377, size: 0x8, addend: 0x0, symName: __ZNSt3__120__shared_ptr_emplaceIN4ROOT6Detail3RDF7RDefineIZ16DeclareVariablesINS1_3RDF10RInterfaceINS3_13RJittedFilterEvEEEDaRT_EUlffffE0_NS3_18ExtraArgsForDefine4NoneEEENS_9allocatorISG_EEE21__on_zero_shared_weakEv, symObjAddr: 0xE3DC, symBinAddr: 0x100011A0C, symSize: 0x4 }
  - { offsetInCU: 0x128399, offset: 0x128399, size: 0x8, addend: 0x0, symName: __ZNSt3__120__shared_ptr_emplaceIN4ROOT6Detail3RDF7RDefineIZ16DeclareVariablesINS1_3RDF10RInterfaceINS3_13RJittedFilterEvEEEDaRT_EUlffffE0_NS3_18ExtraArgsForDefine4NoneEEENS_9allocatorISG_EEE21__on_zero_shared_weakEv, symObjAddr: 0xE3DC, symBinAddr: 0x100011A0C, symSize: 0x4 }
  - { offsetInCU: 0x1283BB, offset: 0x1283BB, size: 0x8, addend: 0x0, symName: __ZNSt3__120__shared_ptr_emplaceIN4ROOT6Detail3RDF7RDefineIZ16DeclareVariablesINS1_3RDF10RInterfaceINS3_13RJittedFilterEvEEEDaRT_EUlffffE0_NS3_18ExtraArgsForDefine4NoneEEENS_9allocatorISG_EEE21__on_zero_shared_weakEv, symObjAddr: 0xE3DC, symBinAddr: 0x100011A0C, symSize: 0x4 }
  - { offsetInCU: 0x1283E8, offset: 0x1283E8, size: 0x8, addend: 0x0, symName: __ZNSt3__120__shared_ptr_emplaceIN4ROOT6Detail3RDF7RDefineIZ16DeclareVariablesINS1_3RDF10RInterfaceINS3_13RJittedFilterEvEEEDaRT_EUlffffE0_NS3_18ExtraArgsForDefine4NoneEEENS_9allocatorISG_EEE21__on_zero_shared_weakEv, symObjAddr: 0xE3DC, symBinAddr: 0x100011A0C, symSize: 0x4 }
  - { offsetInCU: 0x128410, offset: 0x128410, size: 0x8, addend: 0x0, symName: __ZNSt3__120__shared_ptr_emplaceIN4ROOT6Detail3RDF7RDefineIZ16DeclareVariablesINS1_3RDF10RInterfaceINS3_13RJittedFilterEvEEEDaRT_EUlffffE0_NS3_18ExtraArgsForDefine4NoneEEENS_9allocatorISG_EEE21__on_zero_shared_weakEv, symObjAddr: 0xE3DC, symBinAddr: 0x100011A0C, symSize: 0x4 }
  - { offsetInCU: 0x1286DE, offset: 0x1286DE, size: 0x8, addend: 0x0, symName: __ZN4ROOT6Detail3RDF7RDefineIZ16DeclareVariablesINS_3RDF10RInterfaceINS1_13RJittedFilterEvEEEDaRT_EUlffffE0_NS1_18ExtraArgsForDefine4NoneEED1Ev, symObjAddr: 0xE568, symBinAddr: 0x100011B98, symSize: 0x4 }
  - { offsetInCU: 0x128701, offset: 0x128701, size: 0x8, addend: 0x0, symName: __ZN4ROOT6Detail3RDF7RDefineIZ16DeclareVariablesINS_3RDF10RInterfaceINS1_13RJittedFilterEvEEEDaRT_EUlffffE0_NS1_18ExtraArgsForDefine4NoneEED1Ev, symObjAddr: 0xE568, symBinAddr: 0x100011B98, symSize: 0x4 }
  - { offsetInCU: 0x128714, offset: 0x128714, size: 0x8, addend: 0x0, symName: __ZN4ROOT6Detail3RDF7RDefineIZ16DeclareVariablesINS_3RDF10RInterfaceINS1_13RJittedFilterEvEEEDaRT_EUlffffE0_NS1_18ExtraArgsForDefine4NoneEED0Ev, symObjAddr: 0xE56C, symBinAddr: 0x100011B9C, symSize: 0x14 }
  - { offsetInCU: 0x12876E, offset: 0x12876E, size: 0x8, addend: 0x0, symName: __ZN4ROOT6Detail3RDF7RDefineIZ16DeclareVariablesINS_3RDF10RInterfaceINS1_13RJittedFilterEvEEEDaRT_EUlffffE0_NS1_18ExtraArgsForDefine4NoneEE8InitSlotEP11TTreeReaderj, symObjAddr: 0xE580, symBinAddr: 0x100011BB0, symSize: 0x78 }
  - { offsetInCU: 0x12888F, offset: 0x12888F, size: 0x8, addend: 0x0, symName: __ZN4ROOT6Detail3RDF7RDefineIZ16DeclareVariablesINS_3RDF10RInterfaceINS1_13RJittedFilterEvEEEDaRT_EUlffffE0_NS1_18ExtraArgsForDefine4NoneEE11GetValuePtrEj, symObjAddr: 0xE5F8, symBinAddr: 0x100011C28, symSize: 0x10 }
  - { offsetInCU: 0x1288E3, offset: 0x1288E3, size: 0x8, addend: 0x0, symName: __ZNK4ROOT6Detail3RDF7RDefineIZ16DeclareVariablesINS_3RDF10RInterfaceINS1_13RJittedFilterEvEEEDaRT_EUlffffE0_NS1_18ExtraArgsForDefine4NoneEE9GetTypeIdEv, symObjAddr: 0xE608, symBinAddr: 0x100011C38, symSize: 0xC }
  - { offsetInCU: 0x128A04, offset: 0x128A04, size: 0x8, addend: 0x0, symName: __ZN4ROOT6Detail3RDF7RDefineIZ16DeclareVariablesINS_3RDF10RInterfaceINS1_13RJittedFilterEvEEEDaRT_EUlffffE0_NS1_18ExtraArgsForDefine4NoneEE6UpdateEjx, symObjAddr: 0xE614, symBinAddr: 0x100011C44, symSize: 0x184 }
  - { offsetInCU: 0x128D41, offset: 0x128D41, size: 0x8, addend: 0x0, symName: __ZN4ROOT6Detail3RDF7RDefineIZ16DeclareVariablesINS_3RDF10RInterfaceINS1_13RJittedFilterEvEEEDaRT_EUlffffE0_NS1_18ExtraArgsForDefine4NoneEE6UpdateEjRKNS4_11RSampleInfoE, symObjAddr: 0xE798, symBinAddr: 0x100011DC8, symSize: 0x4 }
  - { offsetInCU: 0x128D7A, offset: 0x128D7A, size: 0x8, addend: 0x0, symName: __ZN4ROOT6Detail3RDF7RDefineIZ16DeclareVariablesINS_3RDF10RInterfaceINS1_13RJittedFilterEvEEEDaRT_EUlffffE0_NS1_18ExtraArgsForDefine4NoneEE12FinalizeSlotEj, symObjAddr: 0xE79C, symBinAddr: 0x100011DCC, symSize: 0x54 }
  - { offsetInCU: 0x128EBD, offset: 0x128EBD, size: 0x8, addend: 0x0, symName: __ZN4ROOT6Detail3RDF7RDefineIZ16DeclareVariablesINS_3RDF10RInterfaceINS1_13RJittedFilterEvEEEDaRT_EUlffffE0_NS1_18ExtraArgsForDefine4NoneEE14MakeVariationsERKNSt3__16vectorINSF_12basic_stringIcNSF_11char_traitsIcEENSF_9allocatorIcEEEENSK_ISM_EEEE, symObjAddr: 0xE7F0, symBinAddr: 0x100011E20, symSize: 0x208 }
  - { offsetInCU: 0x129380, offset: 0x129380, size: 0x8, addend: 0x0, symName: __ZN4ROOT6Detail3RDF7RDefineIZ16DeclareVariablesINS_3RDF10RInterfaceINS1_13RJittedFilterEvEEEDaRT_EUlffffE0_NS1_18ExtraArgsForDefine4NoneEE15GetVariedDefineERKNSt3__112basic_stringIcNSF_11char_traitsIcEENSF_9allocatorIcEEEE, symObjAddr: 0xE9F8, symBinAddr: 0x100012028, symSize: 0x108 }
  - { offsetInCU: 0x129510, offset: 0x129510, size: 0x8, addend: 0x0, symName: __ZN4ROOT6Detail3RDF7RDefineIZ16DeclareVariablesINS_3RDF10RInterfaceINS1_13RJittedFilterEvEEEDaRT_EUlffffE0_NS1_18ExtraArgsForDefine4NoneEED2Ev, symObjAddr: 0xEB00, symBinAddr: 0x100012130, symSize: 0xB0 }
  - { offsetInCU: 0x12951B, offset: 0x12951B, size: 0x8, addend: 0x0, symName: __ZN4ROOT6Detail3RDF7RDefineIZ16DeclareVariablesINS_3RDF10RInterfaceINS1_13RJittedFilterEvEEEDaRT_EUlffffE0_NS1_18ExtraArgsForDefine4NoneEE15GetVariedDefineERKNSt3__112basic_stringIcNSF_11char_traitsIcEENSF_9allocatorIcEEEE.cold.1, symObjAddr: 0x1E304, symBinAddr: 0x100022454, symSize: 0x24 }
  - { offsetInCU: 0x1298B6, offset: 0x1298B6, size: 0x8, addend: 0x0, symName: __ZNSt3__120__shared_ptr_emplaceIN4ROOT6Detail3RDF7RDefineIZ16DeclareVariablesINS1_3RDF10RInterfaceINS3_13RJittedFilterEvEEEDaRT_EUlRNS1_6VecOps4RVecIfEERNSE_IiEEE_NS3_18ExtraArgsForDefine4NoneEEENS_9allocatorISM_EEEC2B7v160006IJRNS_17basic_string_viewIcNS_11char_traitsIcEEEERNS_12basic_stringIcST_NSN_IcEEEESJ_RKNS_6vectorISY_NSN_ISY_EEEERNS1_8Internal3RDF15RColumnRegisterERNS3_12RLoopManagerEEEESO_DpOT_, symObjAddr: 0xF1A0, symBinAddr: 0x1000127D0, symSize: 0xE4 }
  - { offsetInCU: 0x129E8C, offset: 0x129E8C, size: 0x8, addend: 0x0, symName: __ZNSt3__110shared_ptrIN4ROOT6Detail3RDF7RDefineIZ16DeclareVariablesINS1_3RDF10RInterfaceINS3_13RJittedFilterEvEEEDaRT_EUlRNS1_6VecOps4RVecIfEERNSE_IiEEE_NS3_18ExtraArgsForDefine4NoneEEEED1B7v160006Ev, symObjAddr: 0xF140, symBinAddr: 0x100012770, symSize: 0x60 }
  - { offsetInCU: 0x129F87, offset: 0x129F87, size: 0x8, addend: 0x0, symName: __ZN4ROOT6Detail3RDF7RDefineIZ16DeclareVariablesINS_3RDF10RInterfaceINS1_13RJittedFilterEvEEEDaRT_EUlRNS_6VecOps4RVecIfEERNSC_IiEEE_NS1_18ExtraArgsForDefine4NoneEEC2ENSt3__117basic_string_viewIcNSL_11char_traitsIcEEEESP_SH_RKNSL_6vectorINSL_12basic_stringIcSO_NSL_9allocatorIcEEEENSS_ISU_EEEERKNS_8Internal3RDF15RColumnRegisterERNS1_12RLoopManagerERKSU_, symObjAddr: 0xF2C8, symBinAddr: 0x1000128F8, symSize: 0x188 }
  - { offsetInCU: 0x12A6FE, offset: 0x12A6FE, size: 0x8, addend: 0x0, symName: __ZNSt3__120__shared_ptr_emplaceIN4ROOT6Detail3RDF7RDefineIZ16DeclareVariablesINS1_3RDF10RInterfaceINS3_13RJittedFilterEvEEEDaRT_EUlRNS1_6VecOps4RVecIfEERNSE_IiEEE_NS3_18ExtraArgsForDefine4NoneEEENS_9allocatorISM_EEED1Ev, symObjAddr: 0xF284, symBinAddr: 0x1000128B4, symSize: 0x14 }
  - { offsetInCU: 0x12A720, offset: 0x12A720, size: 0x8, addend: 0x0, symName: __ZNSt3__120__shared_ptr_emplaceIN4ROOT6Detail3RDF7RDefineIZ16DeclareVariablesINS1_3RDF10RInterfaceINS3_13RJittedFilterEvEEEDaRT_EUlRNS1_6VecOps4RVecIfEERNSE_IiEEE_NS3_18ExtraArgsForDefine4NoneEEENS_9allocatorISM_EEED1Ev, symObjAddr: 0xF284, symBinAddr: 0x1000128B4, symSize: 0x14 }
  - { offsetInCU: 0x12A758, offset: 0x12A758, size: 0x8, addend: 0x0, symName: __ZNSt3__120__shared_ptr_emplaceIN4ROOT6Detail3RDF7RDefineIZ16DeclareVariablesINS1_3RDF10RInterfaceINS3_13RJittedFilterEvEEEDaRT_EUlRNS1_6VecOps4RVecIfEERNSE_IiEEE_NS3_18ExtraArgsForDefine4NoneEEENS_9allocatorISM_EEED0Ev, symObjAddr: 0xF298, symBinAddr: 0x1000128C8, symSize: 0x24 }
  - { offsetInCU: 0x12A7D8, offset: 0x12A7D8, size: 0x8, addend: 0x0, symName: __ZNSt3__120__shared_ptr_emplaceIN4ROOT6Detail3RDF7RDefineIZ16DeclareVariablesINS1_3RDF10RInterfaceINS3_13RJittedFilterEvEEEDaRT_EUlRNS1_6VecOps4RVecIfEERNSE_IiEEE_NS3_18ExtraArgsForDefine4NoneEEENS_9allocatorISM_EEE16__on_zero_sharedEv, symObjAddr: 0xF2BC, symBinAddr: 0x1000128EC, symSize: 0x8 }
  - { offsetInCU: 0x12A801, offset: 0x12A801, size: 0x8, addend: 0x0, symName: __ZNSt3__120__shared_ptr_emplaceIN4ROOT6Detail3RDF7RDefineIZ16DeclareVariablesINS1_3RDF10RInterfaceINS3_13RJittedFilterEvEEEDaRT_EUlRNS1_6VecOps4RVecIfEERNSE_IiEEE_NS3_18ExtraArgsForDefine4NoneEEENS_9allocatorISM_EEE16__on_zero_sharedEv, symObjAddr: 0xF2BC, symBinAddr: 0x1000128EC, symSize: 0x8 }
  - { offsetInCU: 0x12A847, offset: 0x12A847, size: 0x8, addend: 0x0, symName: __ZN4ROOT6Detail3RDF7RDefineIZ16DeclareVariablesINS_3RDF10RInterfaceINS1_13RJittedFilterEvEEEDaRT_EUlRNS_6VecOps4RVecIfEERNSC_IiEEE_NS1_18ExtraArgsForDefine4NoneEED2Ev, symObjAddr: 0xFA74, symBinAddr: 0x1000130A4, symSize: 0xB0 }
  - { offsetInCU: 0x12AFC9, offset: 0x12AFC9, size: 0x8, addend: 0x0, symName: __ZNSt3__120__shared_ptr_emplaceIN4ROOT6Detail3RDF7RDefineIZ16DeclareVariablesINS1_3RDF10RInterfaceINS3_13RJittedFilterEvEEEDaRT_EUlRNS1_6VecOps4RVecIfEERNSE_IiEEE_NS3_18ExtraArgsForDefine4NoneEEENS_9allocatorISM_EEE21__on_zero_shared_weakEv, symObjAddr: 0xF2C4, symBinAddr: 0x1000128F4, symSize: 0x4 }
  - { offsetInCU: 0x12AFFC, offset: 0x12AFFC, size: 0x8, addend: 0x0, symName: __ZNSt3__120__shared_ptr_emplaceIN4ROOT6Detail3RDF7RDefineIZ16DeclareVariablesINS1_3RDF10RInterfaceINS3_13RJittedFilterEvEEEDaRT_EUlRNS1_6VecOps4RVecIfEERNSE_IiEEE_NS3_18ExtraArgsForDefine4NoneEEENS_9allocatorISM_EEE21__on_zero_shared_weakEv, symObjAddr: 0xF2C4, symBinAddr: 0x1000128F4, symSize: 0x4 }
  - { offsetInCU: 0x12B01E, offset: 0x12B01E, size: 0x8, addend: 0x0, symName: __ZNSt3__120__shared_ptr_emplaceIN4ROOT6Detail3RDF7RDefineIZ16DeclareVariablesINS1_3RDF10RInterfaceINS3_13RJittedFilterEvEEEDaRT_EUlRNS1_6VecOps4RVecIfEERNSE_IiEEE_NS3_18ExtraArgsForDefine4NoneEEENS_9allocatorISM_EEE21__on_zero_shared_weakEv, symObjAddr: 0xF2C4, symBinAddr: 0x1000128F4, symSize: 0x4 }
  - { offsetInCU: 0x12B040, offset: 0x12B040, size: 0x8, addend: 0x0, symName: __ZNSt3__120__shared_ptr_emplaceIN4ROOT6Detail3RDF7RDefineIZ16DeclareVariablesINS1_3RDF10RInterfaceINS3_13RJittedFilterEvEEEDaRT_EUlRNS1_6VecOps4RVecIfEERNSE_IiEEE_NS3_18ExtraArgsForDefine4NoneEEENS_9allocatorISM_EEE21__on_zero_shared_weakEv, symObjAddr: 0xF2C4, symBinAddr: 0x1000128F4, symSize: 0x4 }
  - { offsetInCU: 0x12B06D, offset: 0x12B06D, size: 0x8, addend: 0x0, symName: __ZNSt3__120__shared_ptr_emplaceIN4ROOT6Detail3RDF7RDefineIZ16DeclareVariablesINS1_3RDF10RInterfaceINS3_13RJittedFilterEvEEEDaRT_EUlRNS1_6VecOps4RVecIfEERNSE_IiEEE_NS3_18ExtraArgsForDefine4NoneEEENS_9allocatorISM_EEE21__on_zero_shared_weakEv, symObjAddr: 0xF2C4, symBinAddr: 0x1000128F4, symSize: 0x4 }
  - { offsetInCU: 0x12B095, offset: 0x12B095, size: 0x8, addend: 0x0, symName: __ZNSt3__120__shared_ptr_emplaceIN4ROOT6Detail3RDF7RDefineIZ16DeclareVariablesINS1_3RDF10RInterfaceINS3_13RJittedFilterEvEEEDaRT_EUlRNS1_6VecOps4RVecIfEERNSE_IiEEE_NS3_18ExtraArgsForDefine4NoneEEENS_9allocatorISM_EEE21__on_zero_shared_weakEv, symObjAddr: 0xF2C4, symBinAddr: 0x1000128F4, symSize: 0x4 }
  - { offsetInCU: 0x12B611, offset: 0x12B611, size: 0x8, addend: 0x0, symName: __ZN4ROOT6Detail3RDF7RDefineIZ16DeclareVariablesINS_3RDF10RInterfaceINS1_13RJittedFilterEvEEEDaRT_EUlRNS_6VecOps4RVecIfEERNSC_IiEEE_NS1_18ExtraArgsForDefine4NoneEED1Ev, symObjAddr: 0xF450, symBinAddr: 0x100012A80, symSize: 0x4 }
  - { offsetInCU: 0x12B634, offset: 0x12B634, size: 0x8, addend: 0x0, symName: __ZN4ROOT6Detail3RDF7RDefineIZ16DeclareVariablesINS_3RDF10RInterfaceINS1_13RJittedFilterEvEEEDaRT_EUlRNS_6VecOps4RVecIfEERNSC_IiEEE_NS1_18ExtraArgsForDefine4NoneEED1Ev, symObjAddr: 0xF450, symBinAddr: 0x100012A80, symSize: 0x4 }
  - { offsetInCU: 0x12B647, offset: 0x12B647, size: 0x8, addend: 0x0, symName: __ZN4ROOT6Detail3RDF7RDefineIZ16DeclareVariablesINS_3RDF10RInterfaceINS1_13RJittedFilterEvEEEDaRT_EUlRNS_6VecOps4RVecIfEERNSC_IiEEE_NS1_18ExtraArgsForDefine4NoneEED0Ev, symObjAddr: 0xF454, symBinAddr: 0x100012A84, symSize: 0x14 }
  - { offsetInCU: 0x12B6D1, offset: 0x12B6D1, size: 0x8, addend: 0x0, symName: __ZN4ROOT6Detail3RDF7RDefineIZ16DeclareVariablesINS_3RDF10RInterfaceINS1_13RJittedFilterEvEEEDaRT_EUlRNS_6VecOps4RVecIfEERNSC_IiEEE_NS1_18ExtraArgsForDefine4NoneEE8InitSlotEP11TTreeReaderj, symObjAddr: 0xF468, symBinAddr: 0x100012A98, symSize: 0xD4 }
  - { offsetInCU: 0x12B882, offset: 0x12B882, size: 0x8, addend: 0x0, symName: __ZN4ROOT6Detail3RDF7RDefineIZ16DeclareVariablesINS_3RDF10RInterfaceINS1_13RJittedFilterEvEEEDaRT_EUlRNS_6VecOps4RVecIfEERNSC_IiEEE_NS1_18ExtraArgsForDefine4NoneEE11GetValuePtrEj, symObjAddr: 0xF53C, symBinAddr: 0x100012B6C, symSize: 0x10 }
  - { offsetInCU: 0x12B8D6, offset: 0x12B8D6, size: 0x8, addend: 0x0, symName: __ZNK4ROOT6Detail3RDF7RDefineIZ16DeclareVariablesINS_3RDF10RInterfaceINS1_13RJittedFilterEvEEEDaRT_EUlRNS_6VecOps4RVecIfEERNSC_IiEEE_NS1_18ExtraArgsForDefine4NoneEE9GetTypeIdEv, symObjAddr: 0xF54C, symBinAddr: 0x100012B7C, symSize: 0xC }
  - { offsetInCU: 0x12B9D9, offset: 0x12B9D9, size: 0x8, addend: 0x0, symName: __ZN4ROOT6Detail3RDF7RDefineIZ16DeclareVariablesINS_3RDF10RInterfaceINS1_13RJittedFilterEvEEEDaRT_EUlRNS_6VecOps4RVecIfEERNSC_IiEEE_NS1_18ExtraArgsForDefine4NoneEE6UpdateEjx, symObjAddr: 0xF558, symBinAddr: 0x100012B88, symSize: 0x1BC }
  - { offsetInCU: 0x12BD0F, offset: 0x12BD0F, size: 0x8, addend: 0x0, symName: __ZNK4ROOT6VecOps4RVecIfEixIiNSt3__19enable_ifILb1EvEEEES2_RKNS1_IT_EE, symObjAddr: 0xFB24, symBinAddr: 0x100013154, symSize: 0xE0 }
  - { offsetInCU: 0x12BFDA, offset: 0x12BFDA, size: 0x8, addend: 0x0, symName: __ZN4ROOT6Detail3RDF7RDefineIZ16DeclareVariablesINS_3RDF10RInterfaceINS1_13RJittedFilterEvEEEDaRT_EUlRNS_6VecOps4RVecIfEERNSC_IiEEE_NS1_18ExtraArgsForDefine4NoneEE6UpdateEjRKNS4_11RSampleInfoE, symObjAddr: 0xF714, symBinAddr: 0x100012D44, symSize: 0x4 }
  - { offsetInCU: 0x12C034, offset: 0x12C034, size: 0x8, addend: 0x0, symName: __ZN4ROOT6Detail3RDF7RDefineIZ16DeclareVariablesINS_3RDF10RInterfaceINS1_13RJittedFilterEvEEEDaRT_EUlRNS_6VecOps4RVecIfEERNSC_IiEEE_NS1_18ExtraArgsForDefine4NoneEE12FinalizeSlotEj, symObjAddr: 0xF718, symBinAddr: 0x100012D48, symSize: 0x4C }
  - { offsetInCU: 0x12C170, offset: 0x12C170, size: 0x8, addend: 0x0, symName: __ZN4ROOT6Detail3RDF7RDefineIZ16DeclareVariablesINS_3RDF10RInterfaceINS1_13RJittedFilterEvEEEDaRT_EUlRNS_6VecOps4RVecIfEERNSC_IiEEE_NS1_18ExtraArgsForDefine4NoneEE14MakeVariationsERKNSt3__16vectorINSL_12basic_stringIcNSL_11char_traitsIcEENSL_9allocatorIcEEEENSQ_ISS_EEEE, symObjAddr: 0xF764, symBinAddr: 0x100012D94, symSize: 0x208 }
  - { offsetInCU: 0x12C633, offset: 0x12C633, size: 0x8, addend: 0x0, symName: __ZN4ROOT6Detail3RDF7RDefineIZ16DeclareVariablesINS_3RDF10RInterfaceINS1_13RJittedFilterEvEEEDaRT_EUlRNS_6VecOps4RVecIfEERNSC_IiEEE_NS1_18ExtraArgsForDefine4NoneEE15GetVariedDefineERKNSt3__112basic_stringIcNSL_11char_traitsIcEENSL_9allocatorIcEEEE, symObjAddr: 0xF96C, symBinAddr: 0x100012F9C, symSize: 0x108 }
  - { offsetInCU: 0x12C7C3, offset: 0x12C7C3, size: 0x8, addend: 0x0, symName: __ZN4ROOT6Detail3RDF7RDefineIZ16DeclareVariablesINS_3RDF10RInterfaceINS1_13RJittedFilterEvEEEDaRT_EUlRNS_6VecOps4RVecIfEERNSC_IiEEE_NS1_18ExtraArgsForDefine4NoneEED2Ev, symObjAddr: 0xFA74, symBinAddr: 0x1000130A4, symSize: 0xB0 }
  - { offsetInCU: 0x12C7CE, offset: 0x12C7CE, size: 0x8, addend: 0x0, symName: __ZN4ROOT6Detail3RDF7RDefineIZ16DeclareVariablesINS_3RDF10RInterfaceINS1_13RJittedFilterEvEEEDaRT_EUlRNS_6VecOps4RVecIfEERNSC_IiEEE_NS1_18ExtraArgsForDefine4NoneEE15GetVariedDefineERKNSt3__112basic_stringIcNSL_11char_traitsIcEENSL_9allocatorIcEEEE.cold.1, symObjAddr: 0x1E328, symBinAddr: 0x100022478, symSize: 0x24 }
  - { offsetInCU: 0x12C89C, offset: 0x12C89C, size: 0x8, addend: 0x0, symName: __ZNK4ROOT6VecOps5RVecNIfLj12EEixIiLj12ENSt3__19enable_ifILb1EvEEEES2_RKNS1_IT_XT0_EEE, symObjAddr: 0xFC04, symBinAddr: 0x100013234, symSize: 0x430 }
  - { offsetInCU: 0x12DAED, offset: 0x12DAED, size: 0x8, addend: 0x0, symName: __ZNK4ROOT6VecOps4RVecIfEixIiNSt3__19enable_ifILb1EvEEEES2_RKNS1_IT_EE.cold.1, symObjAddr: 0x1E34C, symBinAddr: 0x10002249C, symSize: 0x30 }
  - { offsetInCU: 0x12DC68, offset: 0x12DC68, size: 0x8, addend: 0x0, symName: __ZN4ROOT8Internal6VecOps23SmallVectorTemplateBaseIfLb1EE9push_backERKf, symObjAddr: 0x10034, symBinAddr: 0x100013664, symSize: 0xBC }
  - { offsetInCU: 0x12E10D, offset: 0x12E10D, size: 0x8, addend: 0x0, symName: __ZNSt3__120__shared_ptr_emplaceIN4ROOT6Detail3RDF7RDefineIZ16DeclareVariablesINS1_3RDF10RInterfaceINS3_13RJittedFilterEvEEEDaRT_EUlRNS1_6VecOps4RVecIfEERNSE_IiEEE0_NS3_18ExtraArgsForDefine4NoneEEENS_9allocatorISM_EEEC2B7v160006IJRNS_17basic_string_viewIcNS_11char_traitsIcEEEERNS_12basic_stringIcST_NSN_IcEEEESJ_RKNS_6vectorISY_NSN_ISY_EEEERNS1_8Internal3RDF15RColumnRegisterERNS3_12RLoopManagerEEEESO_DpOT_, symObjAddr: 0x106E0, symBinAddr: 0x100013D10, symSize: 0xE4 }
  - { offsetInCU: 0x12E6E3, offset: 0x12E6E3, size: 0x8, addend: 0x0, symName: __ZNSt3__110shared_ptrIN4ROOT6Detail3RDF7RDefineIZ16DeclareVariablesINS1_3RDF10RInterfaceINS3_13RJittedFilterEvEEEDaRT_EUlRNS1_6VecOps4RVecIfEERNSE_IiEEE0_NS3_18ExtraArgsForDefine4NoneEEEED1B7v160006Ev, symObjAddr: 0x10680, symBinAddr: 0x100013CB0, symSize: 0x60 }
  - { offsetInCU: 0x12E7DE, offset: 0x12E7DE, size: 0x8, addend: 0x0, symName: __ZN4ROOT6Detail3RDF7RDefineIZ16DeclareVariablesINS_3RDF10RInterfaceINS1_13RJittedFilterEvEEEDaRT_EUlRNS_6VecOps4RVecIfEERNSC_IiEEE0_NS1_18ExtraArgsForDefine4NoneEEC2ENSt3__117basic_string_viewIcNSL_11char_traitsIcEEEESP_SH_RKNSL_6vectorINSL_12basic_stringIcSO_NSL_9allocatorIcEEEENSS_ISU_EEEERKNS_8Internal3RDF15RColumnRegisterERNS1_12RLoopManagerERKSU_, symObjAddr: 0x10808, symBinAddr: 0x100013E38, symSize: 0x188 }
  - { offsetInCU: 0x12EF55, offset: 0x12EF55, size: 0x8, addend: 0x0, symName: __ZNSt3__120__shared_ptr_emplaceIN4ROOT6Detail3RDF7RDefineIZ16DeclareVariablesINS1_3RDF10RInterfaceINS3_13RJittedFilterEvEEEDaRT_EUlRNS1_6VecOps4RVecIfEERNSE_IiEEE0_NS3_18ExtraArgsForDefine4NoneEEENS_9allocatorISM_EEED1Ev, symObjAddr: 0x107C4, symBinAddr: 0x100013DF4, symSize: 0x14 }
  - { offsetInCU: 0x12EF77, offset: 0x12EF77, size: 0x8, addend: 0x0, symName: __ZNSt3__120__shared_ptr_emplaceIN4ROOT6Detail3RDF7RDefineIZ16DeclareVariablesINS1_3RDF10RInterfaceINS3_13RJittedFilterEvEEEDaRT_EUlRNS1_6VecOps4RVecIfEERNSE_IiEEE0_NS3_18ExtraArgsForDefine4NoneEEENS_9allocatorISM_EEED1Ev, symObjAddr: 0x107C4, symBinAddr: 0x100013DF4, symSize: 0x14 }
  - { offsetInCU: 0x12EFAF, offset: 0x12EFAF, size: 0x8, addend: 0x0, symName: __ZNSt3__120__shared_ptr_emplaceIN4ROOT6Detail3RDF7RDefineIZ16DeclareVariablesINS1_3RDF10RInterfaceINS3_13RJittedFilterEvEEEDaRT_EUlRNS1_6VecOps4RVecIfEERNSE_IiEEE0_NS3_18ExtraArgsForDefine4NoneEEENS_9allocatorISM_EEED0Ev, symObjAddr: 0x107D8, symBinAddr: 0x100013E08, symSize: 0x24 }
  - { offsetInCU: 0x12F02F, offset: 0x12F02F, size: 0x8, addend: 0x0, symName: __ZNSt3__120__shared_ptr_emplaceIN4ROOT6Detail3RDF7RDefineIZ16DeclareVariablesINS1_3RDF10RInterfaceINS3_13RJittedFilterEvEEEDaRT_EUlRNS1_6VecOps4RVecIfEERNSE_IiEEE0_NS3_18ExtraArgsForDefine4NoneEEENS_9allocatorISM_EEE16__on_zero_sharedEv, symObjAddr: 0x107FC, symBinAddr: 0x100013E2C, symSize: 0x8 }
  - { offsetInCU: 0x12F058, offset: 0x12F058, size: 0x8, addend: 0x0, symName: __ZNSt3__120__shared_ptr_emplaceIN4ROOT6Detail3RDF7RDefineIZ16DeclareVariablesINS1_3RDF10RInterfaceINS3_13RJittedFilterEvEEEDaRT_EUlRNS1_6VecOps4RVecIfEERNSE_IiEEE0_NS3_18ExtraArgsForDefine4NoneEEENS_9allocatorISM_EEE16__on_zero_sharedEv, symObjAddr: 0x107FC, symBinAddr: 0x100013E2C, symSize: 0x8 }
  - { offsetInCU: 0x12F09E, offset: 0x12F09E, size: 0x8, addend: 0x0, symName: __ZN4ROOT6Detail3RDF7RDefineIZ16DeclareVariablesINS_3RDF10RInterfaceINS1_13RJittedFilterEvEEEDaRT_EUlRNS_6VecOps4RVecIfEERNSC_IiEEE0_NS1_18ExtraArgsForDefine4NoneEED2Ev, symObjAddr: 0x10FB4, symBinAddr: 0x1000145E4, symSize: 0xB0 }
  - { offsetInCU: 0x12F820, offset: 0x12F820, size: 0x8, addend: 0x0, symName: __ZNSt3__120__shared_ptr_emplaceIN4ROOT6Detail3RDF7RDefineIZ16DeclareVariablesINS1_3RDF10RInterfaceINS3_13RJittedFilterEvEEEDaRT_EUlRNS1_6VecOps4RVecIfEERNSE_IiEEE0_NS3_18ExtraArgsForDefine4NoneEEENS_9allocatorISM_EEE21__on_zero_shared_weakEv, symObjAddr: 0x10804, symBinAddr: 0x100013E34, symSize: 0x4 }
  - { offsetInCU: 0x12F853, offset: 0x12F853, size: 0x8, addend: 0x0, symName: __ZNSt3__120__shared_ptr_emplaceIN4ROOT6Detail3RDF7RDefineIZ16DeclareVariablesINS1_3RDF10RInterfaceINS3_13RJittedFilterEvEEEDaRT_EUlRNS1_6VecOps4RVecIfEERNSE_IiEEE0_NS3_18ExtraArgsForDefine4NoneEEENS_9allocatorISM_EEE21__on_zero_shared_weakEv, symObjAddr: 0x10804, symBinAddr: 0x100013E34, symSize: 0x4 }
  - { offsetInCU: 0x12F875, offset: 0x12F875, size: 0x8, addend: 0x0, symName: __ZNSt3__120__shared_ptr_emplaceIN4ROOT6Detail3RDF7RDefineIZ16DeclareVariablesINS1_3RDF10RInterfaceINS3_13RJittedFilterEvEEEDaRT_EUlRNS1_6VecOps4RVecIfEERNSE_IiEEE0_NS3_18ExtraArgsForDefine4NoneEEENS_9allocatorISM_EEE21__on_zero_shared_weakEv, symObjAddr: 0x10804, symBinAddr: 0x100013E34, symSize: 0x4 }
  - { offsetInCU: 0x12F897, offset: 0x12F897, size: 0x8, addend: 0x0, symName: __ZNSt3__120__shared_ptr_emplaceIN4ROOT6Detail3RDF7RDefineIZ16DeclareVariablesINS1_3RDF10RInterfaceINS3_13RJittedFilterEvEEEDaRT_EUlRNS1_6VecOps4RVecIfEERNSE_IiEEE0_NS3_18ExtraArgsForDefine4NoneEEENS_9allocatorISM_EEE21__on_zero_shared_weakEv, symObjAddr: 0x10804, symBinAddr: 0x100013E34, symSize: 0x4 }
  - { offsetInCU: 0x12F8C4, offset: 0x12F8C4, size: 0x8, addend: 0x0, symName: __ZNSt3__120__shared_ptr_emplaceIN4ROOT6Detail3RDF7RDefineIZ16DeclareVariablesINS1_3RDF10RInterfaceINS3_13RJittedFilterEvEEEDaRT_EUlRNS1_6VecOps4RVecIfEERNSE_IiEEE0_NS3_18ExtraArgsForDefine4NoneEEENS_9allocatorISM_EEE21__on_zero_shared_weakEv, symObjAddr: 0x10804, symBinAddr: 0x100013E34, symSize: 0x4 }
  - { offsetInCU: 0x12F8EC, offset: 0x12F8EC, size: 0x8, addend: 0x0, symName: __ZNSt3__120__shared_ptr_emplaceIN4ROOT6Detail3RDF7RDefineIZ16DeclareVariablesINS1_3RDF10RInterfaceINS3_13RJittedFilterEvEEEDaRT_EUlRNS1_6VecOps4RVecIfEERNSE_IiEEE0_NS3_18ExtraArgsForDefine4NoneEEENS_9allocatorISM_EEE21__on_zero_shared_weakEv, symObjAddr: 0x10804, symBinAddr: 0x100013E34, symSize: 0x4 }
  - { offsetInCU: 0x12F918, offset: 0x12F918, size: 0x8, addend: 0x0, symName: __ZN4ROOT6Detail3RDF7RDefineIZ16DeclareVariablesINS_3RDF10RInterfaceINS1_13RJittedFilterEvEEEDaRT_EUlRNS_6VecOps4RVecIfEERNSC_IiEEE0_NS1_18ExtraArgsForDefine4NoneEED1Ev, symObjAddr: 0x10990, symBinAddr: 0x100013FC0, symSize: 0x4 }
  - { offsetInCU: 0x12F93B, offset: 0x12F93B, size: 0x8, addend: 0x0, symName: __ZN4ROOT6Detail3RDF7RDefineIZ16DeclareVariablesINS_3RDF10RInterfaceINS1_13RJittedFilterEvEEEDaRT_EUlRNS_6VecOps4RVecIfEERNSC_IiEEE0_NS1_18ExtraArgsForDefine4NoneEED1Ev, symObjAddr: 0x10990, symBinAddr: 0x100013FC0, symSize: 0x4 }
  - { offsetInCU: 0x12F94E, offset: 0x12F94E, size: 0x8, addend: 0x0, symName: __ZN4ROOT6Detail3RDF7RDefineIZ16DeclareVariablesINS_3RDF10RInterfaceINS1_13RJittedFilterEvEEEDaRT_EUlRNS_6VecOps4RVecIfEERNSC_IiEEE0_NS1_18ExtraArgsForDefine4NoneEED0Ev, symObjAddr: 0x10994, symBinAddr: 0x100013FC4, symSize: 0x14 }
  - { offsetInCU: 0x12F9A8, offset: 0x12F9A8, size: 0x8, addend: 0x0, symName: __ZN4ROOT6Detail3RDF7RDefineIZ16DeclareVariablesINS_3RDF10RInterfaceINS1_13RJittedFilterEvEEEDaRT_EUlRNS_6VecOps4RVecIfEERNSC_IiEEE0_NS1_18ExtraArgsForDefine4NoneEE8InitSlotEP11TTreeReaderj, symObjAddr: 0x109A8, symBinAddr: 0x100013FD8, symSize: 0xD4 }
  - { offsetInCU: 0x12FB35, offset: 0x12FB35, size: 0x8, addend: 0x0, symName: __ZN4ROOT6Detail3RDF7RDefineIZ16DeclareVariablesINS_3RDF10RInterfaceINS1_13RJittedFilterEvEEEDaRT_EUlRNS_6VecOps4RVecIfEERNSC_IiEEE0_NS1_18ExtraArgsForDefine4NoneEE11GetValuePtrEj, symObjAddr: 0x10A7C, symBinAddr: 0x1000140AC, symSize: 0x10 }
  - { offsetInCU: 0x12FB89, offset: 0x12FB89, size: 0x8, addend: 0x0, symName: __ZNK4ROOT6Detail3RDF7RDefineIZ16DeclareVariablesINS_3RDF10RInterfaceINS1_13RJittedFilterEvEEEDaRT_EUlRNS_6VecOps4RVecIfEERNSC_IiEEE0_NS1_18ExtraArgsForDefine4NoneEE9GetTypeIdEv, symObjAddr: 0x10A8C, symBinAddr: 0x1000140BC, symSize: 0xC }
  - { offsetInCU: 0x12FC55, offset: 0x12FC55, size: 0x8, addend: 0x0, symName: __ZN4ROOT6Detail3RDF7RDefineIZ16DeclareVariablesINS_3RDF10RInterfaceINS1_13RJittedFilterEvEEEDaRT_EUlRNS_6VecOps4RVecIfEERNSC_IiEEE0_NS1_18ExtraArgsForDefine4NoneEE6UpdateEjx, symObjAddr: 0x10A98, symBinAddr: 0x1000140C8, symSize: 0x1BC }
  - { offsetInCU: 0x12FF85, offset: 0x12FF85, size: 0x8, addend: 0x0, symName: __ZN4ROOT6Detail3RDF7RDefineIZ16DeclareVariablesINS_3RDF10RInterfaceINS1_13RJittedFilterEvEEEDaRT_EUlRNS_6VecOps4RVecIfEERNSC_IiEEE0_NS1_18ExtraArgsForDefine4NoneEE6UpdateEjRKNS4_11RSampleInfoE, symObjAddr: 0x10C54, symBinAddr: 0x100014284, symSize: 0x4 }
  - { offsetInCU: 0x12FFBE, offset: 0x12FFBE, size: 0x8, addend: 0x0, symName: __ZN4ROOT6Detail3RDF7RDefineIZ16DeclareVariablesINS_3RDF10RInterfaceINS1_13RJittedFilterEvEEEDaRT_EUlRNS_6VecOps4RVecIfEERNSC_IiEEE0_NS1_18ExtraArgsForDefine4NoneEE12FinalizeSlotEj, symObjAddr: 0x10C58, symBinAddr: 0x100014288, symSize: 0x4C }
  - { offsetInCU: 0x1300FA, offset: 0x1300FA, size: 0x8, addend: 0x0, symName: __ZN4ROOT6Detail3RDF7RDefineIZ16DeclareVariablesINS_3RDF10RInterfaceINS1_13RJittedFilterEvEEEDaRT_EUlRNS_6VecOps4RVecIfEERNSC_IiEEE0_NS1_18ExtraArgsForDefine4NoneEE14MakeVariationsERKNSt3__16vectorINSL_12basic_stringIcNSL_11char_traitsIcEENSL_9allocatorIcEEEENSQ_ISS_EEEE, symObjAddr: 0x10CA4, symBinAddr: 0x1000142D4, symSize: 0x208 }
  - { offsetInCU: 0x1305BD, offset: 0x1305BD, size: 0x8, addend: 0x0, symName: __ZN4ROOT6Detail3RDF7RDefineIZ16DeclareVariablesINS_3RDF10RInterfaceINS1_13RJittedFilterEvEEEDaRT_EUlRNS_6VecOps4RVecIfEERNSC_IiEEE0_NS1_18ExtraArgsForDefine4NoneEE15GetVariedDefineERKNSt3__112basic_stringIcNSL_11char_traitsIcEENSL_9allocatorIcEEEE, symObjAddr: 0x10EAC, symBinAddr: 0x1000144DC, symSize: 0x108 }
  - { offsetInCU: 0x13074D, offset: 0x13074D, size: 0x8, addend: 0x0, symName: __ZN4ROOT6Detail3RDF7RDefineIZ16DeclareVariablesINS_3RDF10RInterfaceINS1_13RJittedFilterEvEEEDaRT_EUlRNS_6VecOps4RVecIfEERNSC_IiEEE0_NS1_18ExtraArgsForDefine4NoneEED2Ev, symObjAddr: 0x10FB4, symBinAddr: 0x1000145E4, symSize: 0xB0 }
  - { offsetInCU: 0x130758, offset: 0x130758, size: 0x8, addend: 0x0, symName: __ZN4ROOT6Detail3RDF7RDefineIZ16DeclareVariablesINS_3RDF10RInterfaceINS1_13RJittedFilterEvEEEDaRT_EUlRNS_6VecOps4RVecIfEERNSC_IiEEE0_NS1_18ExtraArgsForDefine4NoneEE15GetVariedDefineERKNSt3__112basic_stringIcNSL_11char_traitsIcEENSL_9allocatorIcEEEE.cold.1, symObjAddr: 0x1E37C, symBinAddr: 0x1000224CC, symSize: 0x24 }
  - { offsetInCU: 0x130AF3, offset: 0x130AF3, size: 0x8, addend: 0x0, symName: __ZNSt3__120__shared_ptr_emplaceIN4ROOT6Detail3RDF7RDefineIZ16DeclareVariablesINS1_3RDF10RInterfaceINS3_13RJittedFilterEvEEEDaRT_EUlRNS1_4Math13LorentzVectorINSD_11PtEtaPhiM4DIdEEEERNS1_6VecOps4RVecIiEEE_NS3_18ExtraArgsForDefine4NoneEEENS_9allocatorISQ_EEEC2B7v160006IJRNS_17basic_string_viewIcNS_11char_traitsIcEEEERNS_12basic_stringIcSX_NSR_IcEEEESN_RKNS_6vectorIS12_NSR_IS12_EEEERNS1_8Internal3RDF15RColumnRegisterERNS3_12RLoopManagerEEEESS_DpOT_, symObjAddr: 0x11BF4, symBinAddr: 0x100015224, symSize: 0xE4 }
  - { offsetInCU: 0x1310C9, offset: 0x1310C9, size: 0x8, addend: 0x0, symName: __ZNSt3__110shared_ptrIN4ROOT6Detail3RDF7RDefineIZ16DeclareVariablesINS1_3RDF10RInterfaceINS3_13RJittedFilterEvEEEDaRT_EUlRNS1_4Math13LorentzVectorINSD_11PtEtaPhiM4DIdEEEERNS1_6VecOps4RVecIiEEE_NS3_18ExtraArgsForDefine4NoneEEEED1B7v160006Ev, symObjAddr: 0x115F4, symBinAddr: 0x100014C24, symSize: 0x60 }
  - { offsetInCU: 0x1313D7, offset: 0x1313D7, size: 0x8, addend: 0x0, symName: __ZN4ROOT3RDF11RDataSource16GetColumnReadersINS_4Math13LorentzVectorINS3_11PtEtaPhiM4DIdEEEEEENSt3__16vectorIPPT_NS8_9allocatorISC_EEEENS8_17basic_string_viewIcNS8_11char_traitsIcEEEE, symObjAddr: 0x1193C, symBinAddr: 0x100014F6C, symSize: 0x164 }
  - { offsetInCU: 0x1319F6, offset: 0x1319F6, size: 0x8, addend: 0x0, symName: __ZNSt3__16vectorINS_10unique_ptrIN4ROOT6Detail3RDF17RColumnReaderBaseENS_14default_deleteIS5_EEEENS_9allocatorIS8_EEE24__emplace_back_slow_pathIJPNS2_8Internal3RDF15RDSColumnReaderINS2_4Math13LorentzVectorINSG_11PtEtaPhiM4DIdEEEEEEEEEvDpOT_, symObjAddr: 0x11AB4, symBinAddr: 0x1000150E4, symSize: 0x12C }
  - { offsetInCU: 0x13200F, offset: 0x13200F, size: 0x8, addend: 0x0, symName: __ZN4ROOT8Internal3RDF15RDSColumnReaderINS_4Math13LorentzVectorINS3_11PtEtaPhiM4DIdEEEEED1Ev, symObjAddr: 0x11BE0, symBinAddr: 0x100015210, symSize: 0x4 }
  - { offsetInCU: 0x13220F, offset: 0x13220F, size: 0x8, addend: 0x0, symName: __ZNKSt3__16vectorIPPN4ROOT4Math13LorentzVectorINS2_11PtEtaPhiM4DIdEEEENS_9allocatorIS8_EEE20__throw_length_errorB7v160006Ev, symObjAddr: 0x11AA0, symBinAddr: 0x1000150D0, symSize: 0x14 }
  - { offsetInCU: 0x132238, offset: 0x132238, size: 0x8, addend: 0x0, symName: __ZNSt3__16vectorINS_10unique_ptrIN4ROOT6Detail3RDF17RColumnReaderBaseENS_14default_deleteIS5_EEEENS_9allocatorIS8_EEE24__emplace_back_slow_pathIJPNS2_8Internal3RDF15RDSColumnReaderINS2_4Math13LorentzVectorINSG_11PtEtaPhiM4DIdEEEEEEEEEvDpOT_, symObjAddr: 0x11AB4, symBinAddr: 0x1000150E4, symSize: 0x12C }
  - { offsetInCU: 0x132243, offset: 0x132243, size: 0x8, addend: 0x0, symName: __ZN4ROOT8Internal3RDF15RDSColumnReaderINS_4Math13LorentzVectorINS3_11PtEtaPhiM4DIdEEEEED1Ev, symObjAddr: 0x11BE0, symBinAddr: 0x100015210, symSize: 0x4 }
  - { offsetInCU: 0x13226F, offset: 0x13226F, size: 0x8, addend: 0x0, symName: __ZN4ROOT8Internal3RDF15RDSColumnReaderINS_4Math13LorentzVectorINS3_11PtEtaPhiM4DIdEEEEED0Ev, symObjAddr: 0x11BE4, symBinAddr: 0x100015214, symSize: 0x4 }
  - { offsetInCU: 0x13229B, offset: 0x13229B, size: 0x8, addend: 0x0, symName: __ZN4ROOT8Internal3RDF15RDSColumnReaderINS_4Math13LorentzVectorINS3_11PtEtaPhiM4DIdEEEEE7GetImplEx, symObjAddr: 0x11BE8, symBinAddr: 0x100015218, symSize: 0xC }
  - { offsetInCU: 0x132334, offset: 0x132334, size: 0x8, addend: 0x0, symName: __ZN4ROOT6Detail3RDF7RDefineIZ16DeclareVariablesINS_3RDF10RInterfaceINS1_13RJittedFilterEvEEEDaRT_EUlRNS_4Math13LorentzVectorINSB_11PtEtaPhiM4DIdEEEERNS_6VecOps4RVecIiEEE_NS1_18ExtraArgsForDefine4NoneEEC2ENSt3__117basic_string_viewIcNSP_11char_traitsIcEEEEST_SL_RKNSP_6vectorINSP_12basic_stringIcSS_NSP_9allocatorIcEEEENSW_ISY_EEEERKNS_8Internal3RDF15RColumnRegisterERNS1_12RLoopManagerERKSY_, symObjAddr: 0x11D1C, symBinAddr: 0x10001534C, symSize: 0x188 }
  - { offsetInCU: 0x132AAB, offset: 0x132AAB, size: 0x8, addend: 0x0, symName: __ZNSt3__120__shared_ptr_emplaceIN4ROOT6Detail3RDF7RDefineIZ16DeclareVariablesINS1_3RDF10RInterfaceINS3_13RJittedFilterEvEEEDaRT_EUlRNS1_4Math13LorentzVectorINSD_11PtEtaPhiM4DIdEEEERNS1_6VecOps4RVecIiEEE_NS3_18ExtraArgsForDefine4NoneEEENS_9allocatorISQ_EEED1Ev, symObjAddr: 0x11CD8, symBinAddr: 0x100015308, symSize: 0x14 }
  - { offsetInCU: 0x132ACD, offset: 0x132ACD, size: 0x8, addend: 0x0, symName: __ZNSt3__120__shared_ptr_emplaceIN4ROOT6Detail3RDF7RDefineIZ16DeclareVariablesINS1_3RDF10RInterfaceINS3_13RJittedFilterEvEEEDaRT_EUlRNS1_4Math13LorentzVectorINSD_11PtEtaPhiM4DIdEEEERNS1_6VecOps4RVecIiEEE_NS3_18ExtraArgsForDefine4NoneEEENS_9allocatorISQ_EEED1Ev, symObjAddr: 0x11CD8, symBinAddr: 0x100015308, symSize: 0x14 }
  - { offsetInCU: 0x132B05, offset: 0x132B05, size: 0x8, addend: 0x0, symName: __ZNSt3__120__shared_ptr_emplaceIN4ROOT6Detail3RDF7RDefineIZ16DeclareVariablesINS1_3RDF10RInterfaceINS3_13RJittedFilterEvEEEDaRT_EUlRNS1_4Math13LorentzVectorINSD_11PtEtaPhiM4DIdEEEERNS1_6VecOps4RVecIiEEE_NS3_18ExtraArgsForDefine4NoneEEENS_9allocatorISQ_EEED0Ev, symObjAddr: 0x11CEC, symBinAddr: 0x10001531C, symSize: 0x24 }
  - { offsetInCU: 0x132B85, offset: 0x132B85, size: 0x8, addend: 0x0, symName: __ZNSt3__120__shared_ptr_emplaceIN4ROOT6Detail3RDF7RDefineIZ16DeclareVariablesINS1_3RDF10RInterfaceINS3_13RJittedFilterEvEEEDaRT_EUlRNS1_4Math13LorentzVectorINSD_11PtEtaPhiM4DIdEEEERNS1_6VecOps4RVecIiEEE_NS3_18ExtraArgsForDefine4NoneEEENS_9allocatorISQ_EEE16__on_zero_sharedEv, symObjAddr: 0x11D10, symBinAddr: 0x100015340, symSize: 0x8 }
  - { offsetInCU: 0x132BAE, offset: 0x132BAE, size: 0x8, addend: 0x0, symName: __ZNSt3__120__shared_ptr_emplaceIN4ROOT6Detail3RDF7RDefineIZ16DeclareVariablesINS1_3RDF10RInterfaceINS3_13RJittedFilterEvEEEDaRT_EUlRNS1_4Math13LorentzVectorINSD_11PtEtaPhiM4DIdEEEERNS1_6VecOps4RVecIiEEE_NS3_18ExtraArgsForDefine4NoneEEENS_9allocatorISQ_EEE16__on_zero_sharedEv, symObjAddr: 0x11D10, symBinAddr: 0x100015340, symSize: 0x8 }
  - { offsetInCU: 0x132BF4, offset: 0x132BF4, size: 0x8, addend: 0x0, symName: __ZN4ROOT6Detail3RDF7RDefineIZ16DeclareVariablesINS_3RDF10RInterfaceINS1_13RJittedFilterEvEEEDaRT_EUlRNS_4Math13LorentzVectorINSB_11PtEtaPhiM4DIdEEEERNS_6VecOps4RVecIiEEE_NS1_18ExtraArgsForDefine4NoneEED2Ev, symObjAddr: 0x12460, symBinAddr: 0x100015A90, symSize: 0xB0 }
  - { offsetInCU: 0x133376, offset: 0x133376, size: 0x8, addend: 0x0, symName: __ZNSt3__120__shared_ptr_emplaceIN4ROOT6Detail3RDF7RDefineIZ16DeclareVariablesINS1_3RDF10RInterfaceINS3_13RJittedFilterEvEEEDaRT_EUlRNS1_4Math13LorentzVectorINSD_11PtEtaPhiM4DIdEEEERNS1_6VecOps4RVecIiEEE_NS3_18ExtraArgsForDefine4NoneEEENS_9allocatorISQ_EEE21__on_zero_shared_weakEv, symObjAddr: 0x11D18, symBinAddr: 0x100015348, symSize: 0x4 }
  - { offsetInCU: 0x1333A9, offset: 0x1333A9, size: 0x8, addend: 0x0, symName: __ZNSt3__120__shared_ptr_emplaceIN4ROOT6Detail3RDF7RDefineIZ16DeclareVariablesINS1_3RDF10RInterfaceINS3_13RJittedFilterEvEEEDaRT_EUlRNS1_4Math13LorentzVectorINSD_11PtEtaPhiM4DIdEEEERNS1_6VecOps4RVecIiEEE_NS3_18ExtraArgsForDefine4NoneEEENS_9allocatorISQ_EEE21__on_zero_shared_weakEv, symObjAddr: 0x11D18, symBinAddr: 0x100015348, symSize: 0x4 }
  - { offsetInCU: 0x1333CB, offset: 0x1333CB, size: 0x8, addend: 0x0, symName: __ZNSt3__120__shared_ptr_emplaceIN4ROOT6Detail3RDF7RDefineIZ16DeclareVariablesINS1_3RDF10RInterfaceINS3_13RJittedFilterEvEEEDaRT_EUlRNS1_4Math13LorentzVectorINSD_11PtEtaPhiM4DIdEEEERNS1_6VecOps4RVecIiEEE_NS3_18ExtraArgsForDefine4NoneEEENS_9allocatorISQ_EEE21__on_zero_shared_weakEv, symObjAddr: 0x11D18, symBinAddr: 0x100015348, symSize: 0x4 }
  - { offsetInCU: 0x1333ED, offset: 0x1333ED, size: 0x8, addend: 0x0, symName: __ZNSt3__120__shared_ptr_emplaceIN4ROOT6Detail3RDF7RDefineIZ16DeclareVariablesINS1_3RDF10RInterfaceINS3_13RJittedFilterEvEEEDaRT_EUlRNS1_4Math13LorentzVectorINSD_11PtEtaPhiM4DIdEEEERNS1_6VecOps4RVecIiEEE_NS3_18ExtraArgsForDefine4NoneEEENS_9allocatorISQ_EEE21__on_zero_shared_weakEv, symObjAddr: 0x11D18, symBinAddr: 0x100015348, symSize: 0x4 }
  - { offsetInCU: 0x13341A, offset: 0x13341A, size: 0x8, addend: 0x0, symName: __ZNSt3__120__shared_ptr_emplaceIN4ROOT6Detail3RDF7RDefineIZ16DeclareVariablesINS1_3RDF10RInterfaceINS3_13RJittedFilterEvEEEDaRT_EUlRNS1_4Math13LorentzVectorINSD_11PtEtaPhiM4DIdEEEERNS1_6VecOps4RVecIiEEE_NS3_18ExtraArgsForDefine4NoneEEENS_9allocatorISQ_EEE21__on_zero_shared_weakEv, symObjAddr: 0x11D18, symBinAddr: 0x100015348, symSize: 0x4 }
  - { offsetInCU: 0x133442, offset: 0x133442, size: 0x8, addend: 0x0, symName: __ZNSt3__120__shared_ptr_emplaceIN4ROOT6Detail3RDF7RDefineIZ16DeclareVariablesINS1_3RDF10RInterfaceINS3_13RJittedFilterEvEEEDaRT_EUlRNS1_4Math13LorentzVectorINSD_11PtEtaPhiM4DIdEEEERNS1_6VecOps4RVecIiEEE_NS3_18ExtraArgsForDefine4NoneEEENS_9allocatorISQ_EEE21__on_zero_shared_weakEv, symObjAddr: 0x11D18, symBinAddr: 0x100015348, symSize: 0x4 }
  - { offsetInCU: 0x13346E, offset: 0x13346E, size: 0x8, addend: 0x0, symName: __ZN4ROOT6Detail3RDF7RDefineIZ16DeclareVariablesINS_3RDF10RInterfaceINS1_13RJittedFilterEvEEEDaRT_EUlRNS_4Math13LorentzVectorINSB_11PtEtaPhiM4DIdEEEERNS_6VecOps4RVecIiEEE_NS1_18ExtraArgsForDefine4NoneEED1Ev, symObjAddr: 0x11EA4, symBinAddr: 0x1000154D4, symSize: 0x4 }
  - { offsetInCU: 0x133491, offset: 0x133491, size: 0x8, addend: 0x0, symName: __ZN4ROOT6Detail3RDF7RDefineIZ16DeclareVariablesINS_3RDF10RInterfaceINS1_13RJittedFilterEvEEEDaRT_EUlRNS_4Math13LorentzVectorINSB_11PtEtaPhiM4DIdEEEERNS_6VecOps4RVecIiEEE_NS1_18ExtraArgsForDefine4NoneEED1Ev, symObjAddr: 0x11EA4, symBinAddr: 0x1000154D4, symSize: 0x4 }
  - { offsetInCU: 0x1334A4, offset: 0x1334A4, size: 0x8, addend: 0x0, symName: __ZN4ROOT6Detail3RDF7RDefineIZ16DeclareVariablesINS_3RDF10RInterfaceINS1_13RJittedFilterEvEEEDaRT_EUlRNS_4Math13LorentzVectorINSB_11PtEtaPhiM4DIdEEEERNS_6VecOps4RVecIiEEE_NS1_18ExtraArgsForDefine4NoneEED0Ev, symObjAddr: 0x11EA8, symBinAddr: 0x1000154D8, symSize: 0x14 }
  - { offsetInCU: 0x1334FE, offset: 0x1334FE, size: 0x8, addend: 0x0, symName: __ZN4ROOT6Detail3RDF7RDefineIZ16DeclareVariablesINS_3RDF10RInterfaceINS1_13RJittedFilterEvEEEDaRT_EUlRNS_4Math13LorentzVectorINSB_11PtEtaPhiM4DIdEEEERNS_6VecOps4RVecIiEEE_NS1_18ExtraArgsForDefine4NoneEE8InitSlotEP11TTreeReaderj, symObjAddr: 0x11EBC, symBinAddr: 0x1000154EC, symSize: 0xD4 }
  - { offsetInCU: 0x13368B, offset: 0x13368B, size: 0x8, addend: 0x0, symName: __ZN4ROOT6Detail3RDF7RDefineIZ16DeclareVariablesINS_3RDF10RInterfaceINS1_13RJittedFilterEvEEEDaRT_EUlRNS_4Math13LorentzVectorINSB_11PtEtaPhiM4DIdEEEERNS_6VecOps4RVecIiEEE_NS1_18ExtraArgsForDefine4NoneEE11GetValuePtrEj, symObjAddr: 0x11F90, symBinAddr: 0x1000155C0, symSize: 0x10 }
  - { offsetInCU: 0x1336DF, offset: 0x1336DF, size: 0x8, addend: 0x0, symName: __ZNK4ROOT6Detail3RDF7RDefineIZ16DeclareVariablesINS_3RDF10RInterfaceINS1_13RJittedFilterEvEEEDaRT_EUlRNS_4Math13LorentzVectorINSB_11PtEtaPhiM4DIdEEEERNS_6VecOps4RVecIiEEE_NS1_18ExtraArgsForDefine4NoneEE9GetTypeIdEv, symObjAddr: 0x11FA0, symBinAddr: 0x1000155D0, symSize: 0xC }
  - { offsetInCU: 0x133807, offset: 0x133807, size: 0x8, addend: 0x0, symName: __ZN4ROOT6Detail3RDF7RDefineIZ16DeclareVariablesINS_3RDF10RInterfaceINS1_13RJittedFilterEvEEEDaRT_EUlRNS_4Math13LorentzVectorINSB_11PtEtaPhiM4DIdEEEERNS_6VecOps4RVecIiEEE_NS1_18ExtraArgsForDefine4NoneEE6UpdateEjx, symObjAddr: 0x11FAC, symBinAddr: 0x1000155DC, symSize: 0x154 }
  - { offsetInCU: 0x133A85, offset: 0x133A85, size: 0x8, addend: 0x0, symName: __ZN4ROOT6Detail3RDF7RDefineIZ16DeclareVariablesINS_3RDF10RInterfaceINS1_13RJittedFilterEvEEEDaRT_EUlRNS_4Math13LorentzVectorINSB_11PtEtaPhiM4DIdEEEERNS_6VecOps4RVecIiEEE_NS1_18ExtraArgsForDefine4NoneEE6UpdateEjRKNS4_11RSampleInfoE, symObjAddr: 0x12100, symBinAddr: 0x100015730, symSize: 0x4 }
  - { offsetInCU: 0x133ABE, offset: 0x133ABE, size: 0x8, addend: 0x0, symName: __ZN4ROOT6Detail3RDF7RDefineIZ16DeclareVariablesINS_3RDF10RInterfaceINS1_13RJittedFilterEvEEEDaRT_EUlRNS_4Math13LorentzVectorINSB_11PtEtaPhiM4DIdEEEERNS_6VecOps4RVecIiEEE_NS1_18ExtraArgsForDefine4NoneEE12FinalizeSlotEj, symObjAddr: 0x12104, symBinAddr: 0x100015734, symSize: 0x4C }
  - { offsetInCU: 0x133BFA, offset: 0x133BFA, size: 0x8, addend: 0x0, symName: __ZN4ROOT6Detail3RDF7RDefineIZ16DeclareVariablesINS_3RDF10RInterfaceINS1_13RJittedFilterEvEEEDaRT_EUlRNS_4Math13LorentzVectorINSB_11PtEtaPhiM4DIdEEEERNS_6VecOps4RVecIiEEE_NS1_18ExtraArgsForDefine4NoneEE14MakeVariationsERKNSt3__16vectorINSP_12basic_stringIcNSP_11char_traitsIcEENSP_9allocatorIcEEEENSU_ISW_EEEE, symObjAddr: 0x12150, symBinAddr: 0x100015780, symSize: 0x208 }
  - { offsetInCU: 0x1340BD, offset: 0x1340BD, size: 0x8, addend: 0x0, symName: __ZN4ROOT6Detail3RDF7RDefineIZ16DeclareVariablesINS_3RDF10RInterfaceINS1_13RJittedFilterEvEEEDaRT_EUlRNS_4Math13LorentzVectorINSB_11PtEtaPhiM4DIdEEEERNS_6VecOps4RVecIiEEE_NS1_18ExtraArgsForDefine4NoneEE15GetVariedDefineERKNSt3__112basic_stringIcNSP_11char_traitsIcEENSP_9allocatorIcEEEE, symObjAddr: 0x12358, symBinAddr: 0x100015988, symSize: 0x108 }
  - { offsetInCU: 0x13424D, offset: 0x13424D, size: 0x8, addend: 0x0, symName: __ZN4ROOT6Detail3RDF7RDefineIZ16DeclareVariablesINS_3RDF10RInterfaceINS1_13RJittedFilterEvEEEDaRT_EUlRNS_4Math13LorentzVectorINSB_11PtEtaPhiM4DIdEEEERNS_6VecOps4RVecIiEEE_NS1_18ExtraArgsForDefine4NoneEED2Ev, symObjAddr: 0x12460, symBinAddr: 0x100015A90, symSize: 0xB0 }
  - { offsetInCU: 0x134258, offset: 0x134258, size: 0x8, addend: 0x0, symName: __ZN4ROOT6Detail3RDF7RDefineIZ16DeclareVariablesINS_3RDF10RInterfaceINS1_13RJittedFilterEvEEEDaRT_EUlRNS_4Math13LorentzVectorINSB_11PtEtaPhiM4DIdEEEERNS_6VecOps4RVecIiEEE_NS1_18ExtraArgsForDefine4NoneEE15GetVariedDefineERKNSt3__112basic_stringIcNSP_11char_traitsIcEENSP_9allocatorIcEEEE.cold.1, symObjAddr: 0x1E3A0, symBinAddr: 0x1000224F0, symSize: 0x24 }
  - { offsetInCU: 0x1344EA, offset: 0x1344EA, size: 0x8, addend: 0x0, symName: __ZN4ROOT8Internal3RDF15GetColumnReaderINS_4Math13LorentzVectorINS3_11PtEtaPhiM4DIdEEEEEEPNS_6Detail3RDF17RColumnReaderBaseEjSB_RNS9_12RLoopManagerEP11TTreeReaderRKNSt3__112basic_stringIcNSG_11char_traitsIcEENSG_9allocatorIcEEEE.cold.1, symObjAddr: 0x1E3C4, symBinAddr: 0x100022514, symSize: 0x24 }
  - { offsetInCU: 0x134502, offset: 0x134502, size: 0x8, addend: 0x0, symName: __ZNSt3__110unique_ptrIN4ROOT8Internal3RDF17RTreeColumnReaderINS1_4Math13LorentzVectorINS5_11PtEtaPhiM4DIdEEEEEENS_14default_deleteISA_EEED1B7v160006Ev, symObjAddr: 0x12680, symBinAddr: 0x100015CB0, symSize: 0x5C }
  - { offsetInCU: 0x134880, offset: 0x134880, size: 0x8, addend: 0x0, symName: __ZN4ROOT8Internal3RDF17RTreeColumnReaderINS_4Math13LorentzVectorINS3_11PtEtaPhiM4DIdEEEEED1Ev, symObjAddr: 0x126DC, symBinAddr: 0x100015D0C, symSize: 0x48 }
  - { offsetInCU: 0x134A08, offset: 0x134A08, size: 0x8, addend: 0x0, symName: __ZN4ROOT8Internal3RDF17RTreeColumnReaderINS_4Math13LorentzVectorINS3_11PtEtaPhiM4DIdEEEEED0Ev, symObjAddr: 0x12724, symBinAddr: 0x100015D54, symSize: 0x48 }
  - { offsetInCU: 0x134BF2, offset: 0x134BF2, size: 0x8, addend: 0x0, symName: __ZN4ROOT8Internal3RDF17RTreeColumnReaderINS_4Math13LorentzVectorINS3_11PtEtaPhiM4DIdEEEEE7GetImplEx, symObjAddr: 0x1276C, symBinAddr: 0x100015D9C, symSize: 0x60 }
  - { offsetInCU: 0x134C8B, offset: 0x134C8B, size: 0x8, addend: 0x0, symName: __ZN16TTreeReaderValueIN4ROOT4Math13LorentzVectorINS1_11PtEtaPhiM4DIdEEEEED1Ev, symObjAddr: 0x127CC, symBinAddr: 0x100015DFC, symSize: 0x4 }
  - { offsetInCU: 0x134CAD, offset: 0x134CAD, size: 0x8, addend: 0x0, symName: __ZN16TTreeReaderValueIN4ROOT4Math13LorentzVectorINS1_11PtEtaPhiM4DIdEEEEED1Ev, symObjAddr: 0x127CC, symBinAddr: 0x100015DFC, symSize: 0x4 }
  - { offsetInCU: 0x134CC7, offset: 0x134CC7, size: 0x8, addend: 0x0, symName: __ZN16TTreeReaderValueIN4ROOT4Math13LorentzVectorINS1_11PtEtaPhiM4DIdEEEEED0Ev, symObjAddr: 0x127D0, symBinAddr: 0x100015E00, symSize: 0x14 }
  - { offsetInCU: 0x135071, offset: 0x135071, size: 0x8, addend: 0x0, symName: __ZNSt3__120__shared_ptr_emplaceIN4ROOT6Detail3RDF7RDefineIZ16DeclareVariablesINS1_3RDF10RInterfaceINS3_13RJittedFilterEvEEEDaRT_EUlRNS1_4Math13LorentzVectorINSD_11PtEtaPhiM4DIdEEEERNS1_6VecOps4RVecIiEEE0_NS3_18ExtraArgsForDefine4NoneEEENS_9allocatorISQ_EEEC2B7v160006IJRNS_17basic_string_viewIcNS_11char_traitsIcEEEERNS_12basic_stringIcSX_NSR_IcEEEESN_RKNS_6vectorIS12_NSR_IS12_EEEERNS1_8Internal3RDF15RColumnRegisterERNS3_12RLoopManagerEEEESS_DpOT_, symObjAddr: 0x12E7C, symBinAddr: 0x1000164AC, symSize: 0xE4 }
  - { offsetInCU: 0x135647, offset: 0x135647, size: 0x8, addend: 0x0, symName: __ZNSt3__110shared_ptrIN4ROOT6Detail3RDF7RDefineIZ16DeclareVariablesINS1_3RDF10RInterfaceINS3_13RJittedFilterEvEEEDaRT_EUlRNS1_4Math13LorentzVectorINSD_11PtEtaPhiM4DIdEEEERNS1_6VecOps4RVecIiEEE0_NS3_18ExtraArgsForDefine4NoneEEEED1B7v160006Ev, symObjAddr: 0x12E1C, symBinAddr: 0x10001644C, symSize: 0x60 }
  - { offsetInCU: 0x135742, offset: 0x135742, size: 0x8, addend: 0x0, symName: __ZN4ROOT6Detail3RDF7RDefineIZ16DeclareVariablesINS_3RDF10RInterfaceINS1_13RJittedFilterEvEEEDaRT_EUlRNS_4Math13LorentzVectorINSB_11PtEtaPhiM4DIdEEEERNS_6VecOps4RVecIiEEE0_NS1_18ExtraArgsForDefine4NoneEEC2ENSt3__117basic_string_viewIcNSP_11char_traitsIcEEEEST_SL_RKNSP_6vectorINSP_12basic_stringIcSS_NSP_9allocatorIcEEEENSW_ISY_EEEERKNS_8Internal3RDF15RColumnRegisterERNS1_12RLoopManagerERKSY_, symObjAddr: 0x12FA4, symBinAddr: 0x1000165D4, symSize: 0x188 }
  - { offsetInCU: 0x135EB9, offset: 0x135EB9, size: 0x8, addend: 0x0, symName: __ZNSt3__120__shared_ptr_emplaceIN4ROOT6Detail3RDF7RDefineIZ16DeclareVariablesINS1_3RDF10RInterfaceINS3_13RJittedFilterEvEEEDaRT_EUlRNS1_4Math13LorentzVectorINSD_11PtEtaPhiM4DIdEEEERNS1_6VecOps4RVecIiEEE0_NS3_18ExtraArgsForDefine4NoneEEENS_9allocatorISQ_EEED1Ev, symObjAddr: 0x12F60, symBinAddr: 0x100016590, symSize: 0x14 }
  - { offsetInCU: 0x135EDB, offset: 0x135EDB, size: 0x8, addend: 0x0, symName: __ZNSt3__120__shared_ptr_emplaceIN4ROOT6Detail3RDF7RDefineIZ16DeclareVariablesINS1_3RDF10RInterfaceINS3_13RJittedFilterEvEEEDaRT_EUlRNS1_4Math13LorentzVectorINSD_11PtEtaPhiM4DIdEEEERNS1_6VecOps4RVecIiEEE0_NS3_18ExtraArgsForDefine4NoneEEENS_9allocatorISQ_EEED1Ev, symObjAddr: 0x12F60, symBinAddr: 0x100016590, symSize: 0x14 }
  - { offsetInCU: 0x135F13, offset: 0x135F13, size: 0x8, addend: 0x0, symName: __ZNSt3__120__shared_ptr_emplaceIN4ROOT6Detail3RDF7RDefineIZ16DeclareVariablesINS1_3RDF10RInterfaceINS3_13RJittedFilterEvEEEDaRT_EUlRNS1_4Math13LorentzVectorINSD_11PtEtaPhiM4DIdEEEERNS1_6VecOps4RVecIiEEE0_NS3_18ExtraArgsForDefine4NoneEEENS_9allocatorISQ_EEED0Ev, symObjAddr: 0x12F74, symBinAddr: 0x1000165A4, symSize: 0x24 }
  - { offsetInCU: 0x135F93, offset: 0x135F93, size: 0x8, addend: 0x0, symName: __ZNSt3__120__shared_ptr_emplaceIN4ROOT6Detail3RDF7RDefineIZ16DeclareVariablesINS1_3RDF10RInterfaceINS3_13RJittedFilterEvEEEDaRT_EUlRNS1_4Math13LorentzVectorINSD_11PtEtaPhiM4DIdEEEERNS1_6VecOps4RVecIiEEE0_NS3_18ExtraArgsForDefine4NoneEEENS_9allocatorISQ_EEE16__on_zero_sharedEv, symObjAddr: 0x12F98, symBinAddr: 0x1000165C8, symSize: 0x8 }
  - { offsetInCU: 0x135FBC, offset: 0x135FBC, size: 0x8, addend: 0x0, symName: __ZNSt3__120__shared_ptr_emplaceIN4ROOT6Detail3RDF7RDefineIZ16DeclareVariablesINS1_3RDF10RInterfaceINS3_13RJittedFilterEvEEEDaRT_EUlRNS1_4Math13LorentzVectorINSD_11PtEtaPhiM4DIdEEEERNS1_6VecOps4RVecIiEEE0_NS3_18ExtraArgsForDefine4NoneEEENS_9allocatorISQ_EEE16__on_zero_sharedEv, symObjAddr: 0x12F98, symBinAddr: 0x1000165C8, symSize: 0x8 }
  - { offsetInCU: 0x136002, offset: 0x136002, size: 0x8, addend: 0x0, symName: __ZN4ROOT6Detail3RDF7RDefineIZ16DeclareVariablesINS_3RDF10RInterfaceINS1_13RJittedFilterEvEEEDaRT_EUlRNS_4Math13LorentzVectorINSB_11PtEtaPhiM4DIdEEEERNS_6VecOps4RVecIiEEE0_NS1_18ExtraArgsForDefine4NoneEED2Ev, symObjAddr: 0x136E8, symBinAddr: 0x100016D18, symSize: 0xB0 }
  - { offsetInCU: 0x136784, offset: 0x136784, size: 0x8, addend: 0x0, symName: __ZNSt3__120__shared_ptr_emplaceIN4ROOT6Detail3RDF7RDefineIZ16DeclareVariablesINS1_3RDF10RInterfaceINS3_13RJittedFilterEvEEEDaRT_EUlRNS1_4Math13LorentzVectorINSD_11PtEtaPhiM4DIdEEEERNS1_6VecOps4RVecIiEEE0_NS3_18ExtraArgsForDefine4NoneEEENS_9allocatorISQ_EEE21__on_zero_shared_weakEv, symObjAddr: 0x12FA0, symBinAddr: 0x1000165D0, symSize: 0x4 }
  - { offsetInCU: 0x1367B7, offset: 0x1367B7, size: 0x8, addend: 0x0, symName: __ZNSt3__120__shared_ptr_emplaceIN4ROOT6Detail3RDF7RDefineIZ16DeclareVariablesINS1_3RDF10RInterfaceINS3_13RJittedFilterEvEEEDaRT_EUlRNS1_4Math13LorentzVectorINSD_11PtEtaPhiM4DIdEEEERNS1_6VecOps4RVecIiEEE0_NS3_18ExtraArgsForDefine4NoneEEENS_9allocatorISQ_EEE21__on_zero_shared_weakEv, symObjAddr: 0x12FA0, symBinAddr: 0x1000165D0, symSize: 0x4 }
  - { offsetInCU: 0x1367D9, offset: 0x1367D9, size: 0x8, addend: 0x0, symName: __ZNSt3__120__shared_ptr_emplaceIN4ROOT6Detail3RDF7RDefineIZ16DeclareVariablesINS1_3RDF10RInterfaceINS3_13RJittedFilterEvEEEDaRT_EUlRNS1_4Math13LorentzVectorINSD_11PtEtaPhiM4DIdEEEERNS1_6VecOps4RVecIiEEE0_NS3_18ExtraArgsForDefine4NoneEEENS_9allocatorISQ_EEE21__on_zero_shared_weakEv, symObjAddr: 0x12FA0, symBinAddr: 0x1000165D0, symSize: 0x4 }
  - { offsetInCU: 0x1367FB, offset: 0x1367FB, size: 0x8, addend: 0x0, symName: __ZNSt3__120__shared_ptr_emplaceIN4ROOT6Detail3RDF7RDefineIZ16DeclareVariablesINS1_3RDF10RInterfaceINS3_13RJittedFilterEvEEEDaRT_EUlRNS1_4Math13LorentzVectorINSD_11PtEtaPhiM4DIdEEEERNS1_6VecOps4RVecIiEEE0_NS3_18ExtraArgsForDefine4NoneEEENS_9allocatorISQ_EEE21__on_zero_shared_weakEv, symObjAddr: 0x12FA0, symBinAddr: 0x1000165D0, symSize: 0x4 }
  - { offsetInCU: 0x136828, offset: 0x136828, size: 0x8, addend: 0x0, symName: __ZNSt3__120__shared_ptr_emplaceIN4ROOT6Detail3RDF7RDefineIZ16DeclareVariablesINS1_3RDF10RInterfaceINS3_13RJittedFilterEvEEEDaRT_EUlRNS1_4Math13LorentzVectorINSD_11PtEtaPhiM4DIdEEEERNS1_6VecOps4RVecIiEEE0_NS3_18ExtraArgsForDefine4NoneEEENS_9allocatorISQ_EEE21__on_zero_shared_weakEv, symObjAddr: 0x12FA0, symBinAddr: 0x1000165D0, symSize: 0x4 }
  - { offsetInCU: 0x136850, offset: 0x136850, size: 0x8, addend: 0x0, symName: __ZNSt3__120__shared_ptr_emplaceIN4ROOT6Detail3RDF7RDefineIZ16DeclareVariablesINS1_3RDF10RInterfaceINS3_13RJittedFilterEvEEEDaRT_EUlRNS1_4Math13LorentzVectorINSD_11PtEtaPhiM4DIdEEEERNS1_6VecOps4RVecIiEEE0_NS3_18ExtraArgsForDefine4NoneEEENS_9allocatorISQ_EEE21__on_zero_shared_weakEv, symObjAddr: 0x12FA0, symBinAddr: 0x1000165D0, symSize: 0x4 }
  - { offsetInCU: 0x13687C, offset: 0x13687C, size: 0x8, addend: 0x0, symName: __ZN4ROOT6Detail3RDF7RDefineIZ16DeclareVariablesINS_3RDF10RInterfaceINS1_13RJittedFilterEvEEEDaRT_EUlRNS_4Math13LorentzVectorINSB_11PtEtaPhiM4DIdEEEERNS_6VecOps4RVecIiEEE0_NS1_18ExtraArgsForDefine4NoneEED1Ev, symObjAddr: 0x1312C, symBinAddr: 0x10001675C, symSize: 0x4 }
  - { offsetInCU: 0x13689F, offset: 0x13689F, size: 0x8, addend: 0x0, symName: __ZN4ROOT6Detail3RDF7RDefineIZ16DeclareVariablesINS_3RDF10RInterfaceINS1_13RJittedFilterEvEEEDaRT_EUlRNS_4Math13LorentzVectorINSB_11PtEtaPhiM4DIdEEEERNS_6VecOps4RVecIiEEE0_NS1_18ExtraArgsForDefine4NoneEED1Ev, symObjAddr: 0x1312C, symBinAddr: 0x10001675C, symSize: 0x4 }
  - { offsetInCU: 0x1368B2, offset: 0x1368B2, size: 0x8, addend: 0x0, symName: __ZN4ROOT6Detail3RDF7RDefineIZ16DeclareVariablesINS_3RDF10RInterfaceINS1_13RJittedFilterEvEEEDaRT_EUlRNS_4Math13LorentzVectorINSB_11PtEtaPhiM4DIdEEEERNS_6VecOps4RVecIiEEE0_NS1_18ExtraArgsForDefine4NoneEED0Ev, symObjAddr: 0x13130, symBinAddr: 0x100016760, symSize: 0x14 }
  - { offsetInCU: 0x13690C, offset: 0x13690C, size: 0x8, addend: 0x0, symName: __ZN4ROOT6Detail3RDF7RDefineIZ16DeclareVariablesINS_3RDF10RInterfaceINS1_13RJittedFilterEvEEEDaRT_EUlRNS_4Math13LorentzVectorINSB_11PtEtaPhiM4DIdEEEERNS_6VecOps4RVecIiEEE0_NS1_18ExtraArgsForDefine4NoneEE8InitSlotEP11TTreeReaderj, symObjAddr: 0x13144, symBinAddr: 0x100016774, symSize: 0xD4 }
  - { offsetInCU: 0x136A99, offset: 0x136A99, size: 0x8, addend: 0x0, symName: __ZN4ROOT6Detail3RDF7RDefineIZ16DeclareVariablesINS_3RDF10RInterfaceINS1_13RJittedFilterEvEEEDaRT_EUlRNS_4Math13LorentzVectorINSB_11PtEtaPhiM4DIdEEEERNS_6VecOps4RVecIiEEE0_NS1_18ExtraArgsForDefine4NoneEE11GetValuePtrEj, symObjAddr: 0x13218, symBinAddr: 0x100016848, symSize: 0x10 }
  - { offsetInCU: 0x136AED, offset: 0x136AED, size: 0x8, addend: 0x0, symName: __ZNK4ROOT6Detail3RDF7RDefineIZ16DeclareVariablesINS_3RDF10RInterfaceINS1_13RJittedFilterEvEEEDaRT_EUlRNS_4Math13LorentzVectorINSB_11PtEtaPhiM4DIdEEEERNS_6VecOps4RVecIiEEE0_NS1_18ExtraArgsForDefine4NoneEE9GetTypeIdEv, symObjAddr: 0x13228, symBinAddr: 0x100016858, symSize: 0xC }
  - { offsetInCU: 0x136BE5, offset: 0x136BE5, size: 0x8, addend: 0x0, symName: __ZN4ROOT6Detail3RDF7RDefineIZ16DeclareVariablesINS_3RDF10RInterfaceINS1_13RJittedFilterEvEEEDaRT_EUlRNS_4Math13LorentzVectorINSB_11PtEtaPhiM4DIdEEEERNS_6VecOps4RVecIiEEE0_NS1_18ExtraArgsForDefine4NoneEE6UpdateEjx, symObjAddr: 0x13234, symBinAddr: 0x100016864, symSize: 0x154 }
  - { offsetInCU: 0x136E63, offset: 0x136E63, size: 0x8, addend: 0x0, symName: __ZN4ROOT6Detail3RDF7RDefineIZ16DeclareVariablesINS_3RDF10RInterfaceINS1_13RJittedFilterEvEEEDaRT_EUlRNS_4Math13LorentzVectorINSB_11PtEtaPhiM4DIdEEEERNS_6VecOps4RVecIiEEE0_NS1_18ExtraArgsForDefine4NoneEE6UpdateEjRKNS4_11RSampleInfoE, symObjAddr: 0x13388, symBinAddr: 0x1000169B8, symSize: 0x4 }
  - { offsetInCU: 0x136E9C, offset: 0x136E9C, size: 0x8, addend: 0x0, symName: __ZN4ROOT6Detail3RDF7RDefineIZ16DeclareVariablesINS_3RDF10RInterfaceINS1_13RJittedFilterEvEEEDaRT_EUlRNS_4Math13LorentzVectorINSB_11PtEtaPhiM4DIdEEEERNS_6VecOps4RVecIiEEE0_NS1_18ExtraArgsForDefine4NoneEE12FinalizeSlotEj, symObjAddr: 0x1338C, symBinAddr: 0x1000169BC, symSize: 0x4C }
  - { offsetInCU: 0x136FD8, offset: 0x136FD8, size: 0x8, addend: 0x0, symName: __ZN4ROOT6Detail3RDF7RDefineIZ16DeclareVariablesINS_3RDF10RInterfaceINS1_13RJittedFilterEvEEEDaRT_EUlRNS_4Math13LorentzVectorINSB_11PtEtaPhiM4DIdEEEERNS_6VecOps4RVecIiEEE0_NS1_18ExtraArgsForDefine4NoneEE14MakeVariationsERKNSt3__16vectorINSP_12basic_stringIcNSP_11char_traitsIcEENSP_9allocatorIcEEEENSU_ISW_EEEE, symObjAddr: 0x133D8, symBinAddr: 0x100016A08, symSize: 0x208 }
  - { offsetInCU: 0x13749B, offset: 0x13749B, size: 0x8, addend: 0x0, symName: __ZN4ROOT6Detail3RDF7RDefineIZ16DeclareVariablesINS_3RDF10RInterfaceINS1_13RJittedFilterEvEEEDaRT_EUlRNS_4Math13LorentzVectorINSB_11PtEtaPhiM4DIdEEEERNS_6VecOps4RVecIiEEE0_NS1_18ExtraArgsForDefine4NoneEE15GetVariedDefineERKNSt3__112basic_stringIcNSP_11char_traitsIcEENSP_9allocatorIcEEEE, symObjAddr: 0x135E0, symBinAddr: 0x100016C10, symSize: 0x108 }
  - { offsetInCU: 0x13762B, offset: 0x13762B, size: 0x8, addend: 0x0, symName: __ZN4ROOT6Detail3RDF7RDefineIZ16DeclareVariablesINS_3RDF10RInterfaceINS1_13RJittedFilterEvEEEDaRT_EUlRNS_4Math13LorentzVectorINSB_11PtEtaPhiM4DIdEEEERNS_6VecOps4RVecIiEEE0_NS1_18ExtraArgsForDefine4NoneEED2Ev, symObjAddr: 0x136E8, symBinAddr: 0x100016D18, symSize: 0xB0 }
  - { offsetInCU: 0x137636, offset: 0x137636, size: 0x8, addend: 0x0, symName: __ZN4ROOT6Detail3RDF7RDefineIZ16DeclareVariablesINS_3RDF10RInterfaceINS1_13RJittedFilterEvEEEDaRT_EUlRNS_4Math13LorentzVectorINSB_11PtEtaPhiM4DIdEEEERNS_6VecOps4RVecIiEEE0_NS1_18ExtraArgsForDefine4NoneEE15GetVariedDefineERKNSt3__112basic_stringIcNSP_11char_traitsIcEENSP_9allocatorIcEEEE.cold.1, symObjAddr: 0x1E3E8, symBinAddr: 0x100022538, symSize: 0x24 }
  - { offsetInCU: 0x1379D6, offset: 0x1379D6, size: 0x8, addend: 0x0, symName: __ZNSt3__120__shared_ptr_emplaceIN4ROOT6Detail3RDF7RDefineIZ16DeclareVariablesINS1_3RDF10RInterfaceINS3_13RJittedFilterEvEEEDaRT_EUlffRNS1_6VecOps4RVecIiEEE_NS3_18ExtraArgsForDefine4NoneEEENS_9allocatorISK_EEEC2B7v160006IJRNS_17basic_string_viewIcNS_11char_traitsIcEEEERNS_12basic_stringIcSR_NSL_IcEEEESH_RKNS_6vectorISW_NSL_ISW_EEEERNS1_8Internal3RDF15RColumnRegisterERNS3_12RLoopManagerEEEESM_DpOT_, symObjAddr: 0x13DA0, symBinAddr: 0x1000173D0, symSize: 0xE4 }
  - { offsetInCU: 0x137FAC, offset: 0x137FAC, size: 0x8, addend: 0x0, symName: __ZNSt3__110shared_ptrIN4ROOT6Detail3RDF7RDefineIZ16DeclareVariablesINS1_3RDF10RInterfaceINS3_13RJittedFilterEvEEEDaRT_EUlffRNS1_6VecOps4RVecIiEEE_NS3_18ExtraArgsForDefine4NoneEEEED1B7v160006Ev, symObjAddr: 0x13D40, symBinAddr: 0x100017370, symSize: 0x60 }
  - { offsetInCU: 0x1380A7, offset: 0x1380A7, size: 0x8, addend: 0x0, symName: __ZN4ROOT6Detail3RDF7RDefineIZ16DeclareVariablesINS_3RDF10RInterfaceINS1_13RJittedFilterEvEEEDaRT_EUlffRNS_6VecOps4RVecIiEEE_NS1_18ExtraArgsForDefine4NoneEEC2ENSt3__117basic_string_viewIcNSJ_11char_traitsIcEEEESN_SF_RKNSJ_6vectorINSJ_12basic_stringIcSM_NSJ_9allocatorIcEEEENSQ_ISS_EEEERKNS_8Internal3RDF15RColumnRegisterERNS1_12RLoopManagerERKSS_, symObjAddr: 0x13EC8, symBinAddr: 0x1000174F8, symSize: 0x1B0 }
  - { offsetInCU: 0x13881E, offset: 0x13881E, size: 0x8, addend: 0x0, symName: __ZNSt3__120__shared_ptr_emplaceIN4ROOT6Detail3RDF7RDefineIZ16DeclareVariablesINS1_3RDF10RInterfaceINS3_13RJittedFilterEvEEEDaRT_EUlffRNS1_6VecOps4RVecIiEEE_NS3_18ExtraArgsForDefine4NoneEEENS_9allocatorISK_EEED1Ev, symObjAddr: 0x13E84, symBinAddr: 0x1000174B4, symSize: 0x14 }
  - { offsetInCU: 0x138840, offset: 0x138840, size: 0x8, addend: 0x0, symName: __ZNSt3__120__shared_ptr_emplaceIN4ROOT6Detail3RDF7RDefineIZ16DeclareVariablesINS1_3RDF10RInterfaceINS3_13RJittedFilterEvEEEDaRT_EUlffRNS1_6VecOps4RVecIiEEE_NS3_18ExtraArgsForDefine4NoneEEENS_9allocatorISK_EEED1Ev, symObjAddr: 0x13E84, symBinAddr: 0x1000174B4, symSize: 0x14 }
  - { offsetInCU: 0x138878, offset: 0x138878, size: 0x8, addend: 0x0, symName: __ZNSt3__120__shared_ptr_emplaceIN4ROOT6Detail3RDF7RDefineIZ16DeclareVariablesINS1_3RDF10RInterfaceINS3_13RJittedFilterEvEEEDaRT_EUlffRNS1_6VecOps4RVecIiEEE_NS3_18ExtraArgsForDefine4NoneEEENS_9allocatorISK_EEED0Ev, symObjAddr: 0x13E98, symBinAddr: 0x1000174C8, symSize: 0x24 }
  - { offsetInCU: 0x1388F8, offset: 0x1388F8, size: 0x8, addend: 0x0, symName: __ZNSt3__120__shared_ptr_emplaceIN4ROOT6Detail3RDF7RDefineIZ16DeclareVariablesINS1_3RDF10RInterfaceINS3_13RJittedFilterEvEEEDaRT_EUlffRNS1_6VecOps4RVecIiEEE_NS3_18ExtraArgsForDefine4NoneEEENS_9allocatorISK_EEE16__on_zero_sharedEv, symObjAddr: 0x13EBC, symBinAddr: 0x1000174EC, symSize: 0x8 }
  - { offsetInCU: 0x138921, offset: 0x138921, size: 0x8, addend: 0x0, symName: __ZNSt3__120__shared_ptr_emplaceIN4ROOT6Detail3RDF7RDefineIZ16DeclareVariablesINS1_3RDF10RInterfaceINS3_13RJittedFilterEvEEEDaRT_EUlffRNS1_6VecOps4RVecIiEEE_NS3_18ExtraArgsForDefine4NoneEEENS_9allocatorISK_EEE16__on_zero_sharedEv, symObjAddr: 0x13EBC, symBinAddr: 0x1000174EC, symSize: 0x8 }
  - { offsetInCU: 0x138967, offset: 0x138967, size: 0x8, addend: 0x0, symName: __ZN4ROOT6Detail3RDF7RDefineIZ16DeclareVariablesINS_3RDF10RInterfaceINS1_13RJittedFilterEvEEEDaRT_EUlffRNS_6VecOps4RVecIiEEE_NS1_18ExtraArgsForDefine4NoneEED2Ev, symObjAddr: 0x146BC, symBinAddr: 0x100017CEC, symSize: 0xB0 }
  - { offsetInCU: 0x1390E9, offset: 0x1390E9, size: 0x8, addend: 0x0, symName: __ZNSt3__120__shared_ptr_emplaceIN4ROOT6Detail3RDF7RDefineIZ16DeclareVariablesINS1_3RDF10RInterfaceINS3_13RJittedFilterEvEEEDaRT_EUlffRNS1_6VecOps4RVecIiEEE_NS3_18ExtraArgsForDefine4NoneEEENS_9allocatorISK_EEE21__on_zero_shared_weakEv, symObjAddr: 0x13EC4, symBinAddr: 0x1000174F4, symSize: 0x4 }
  - { offsetInCU: 0x13911C, offset: 0x13911C, size: 0x8, addend: 0x0, symName: __ZNSt3__120__shared_ptr_emplaceIN4ROOT6Detail3RDF7RDefineIZ16DeclareVariablesINS1_3RDF10RInterfaceINS3_13RJittedFilterEvEEEDaRT_EUlffRNS1_6VecOps4RVecIiEEE_NS3_18ExtraArgsForDefine4NoneEEENS_9allocatorISK_EEE21__on_zero_shared_weakEv, symObjAddr: 0x13EC4, symBinAddr: 0x1000174F4, symSize: 0x4 }
  - { offsetInCU: 0x13913E, offset: 0x13913E, size: 0x8, addend: 0x0, symName: __ZNSt3__120__shared_ptr_emplaceIN4ROOT6Detail3RDF7RDefineIZ16DeclareVariablesINS1_3RDF10RInterfaceINS3_13RJittedFilterEvEEEDaRT_EUlffRNS1_6VecOps4RVecIiEEE_NS3_18ExtraArgsForDefine4NoneEEENS_9allocatorISK_EEE21__on_zero_shared_weakEv, symObjAddr: 0x13EC4, symBinAddr: 0x1000174F4, symSize: 0x4 }
  - { offsetInCU: 0x139160, offset: 0x139160, size: 0x8, addend: 0x0, symName: __ZNSt3__120__shared_ptr_emplaceIN4ROOT6Detail3RDF7RDefineIZ16DeclareVariablesINS1_3RDF10RInterfaceINS3_13RJittedFilterEvEEEDaRT_EUlffRNS1_6VecOps4RVecIiEEE_NS3_18ExtraArgsForDefine4NoneEEENS_9allocatorISK_EEE21__on_zero_shared_weakEv, symObjAddr: 0x13EC4, symBinAddr: 0x1000174F4, symSize: 0x4 }
  - { offsetInCU: 0x13918D, offset: 0x13918D, size: 0x8, addend: 0x0, symName: __ZNSt3__120__shared_ptr_emplaceIN4ROOT6Detail3RDF7RDefineIZ16DeclareVariablesINS1_3RDF10RInterfaceINS3_13RJittedFilterEvEEEDaRT_EUlffRNS1_6VecOps4RVecIiEEE_NS3_18ExtraArgsForDefine4NoneEEENS_9allocatorISK_EEE21__on_zero_shared_weakEv, symObjAddr: 0x13EC4, symBinAddr: 0x1000174F4, symSize: 0x4 }
  - { offsetInCU: 0x1391B5, offset: 0x1391B5, size: 0x8, addend: 0x0, symName: __ZNSt3__120__shared_ptr_emplaceIN4ROOT6Detail3RDF7RDefineIZ16DeclareVariablesINS1_3RDF10RInterfaceINS3_13RJittedFilterEvEEEDaRT_EUlffRNS1_6VecOps4RVecIiEEE_NS3_18ExtraArgsForDefine4NoneEEENS_9allocatorISK_EEE21__on_zero_shared_weakEv, symObjAddr: 0x13EC4, symBinAddr: 0x1000174F4, symSize: 0x4 }
  - { offsetInCU: 0x139489, offset: 0x139489, size: 0x8, addend: 0x0, symName: __ZN4ROOT6Detail3RDF7RDefineIZ16DeclareVariablesINS_3RDF10RInterfaceINS1_13RJittedFilterEvEEEDaRT_EUlffRNS_6VecOps4RVecIiEEE_NS1_18ExtraArgsForDefine4NoneEED1Ev, symObjAddr: 0x14078, symBinAddr: 0x1000176A8, symSize: 0x4 }
  - { offsetInCU: 0x1394AC, offset: 0x1394AC, size: 0x8, addend: 0x0, symName: __ZN4ROOT6Detail3RDF7RDefineIZ16DeclareVariablesINS_3RDF10RInterfaceINS1_13RJittedFilterEvEEEDaRT_EUlffRNS_6VecOps4RVecIiEEE_NS1_18ExtraArgsForDefine4NoneEED1Ev, symObjAddr: 0x14078, symBinAddr: 0x1000176A8, symSize: 0x4 }
  - { offsetInCU: 0x1394BF, offset: 0x1394BF, size: 0x8, addend: 0x0, symName: __ZN4ROOT6Detail3RDF7RDefineIZ16DeclareVariablesINS_3RDF10RInterfaceINS1_13RJittedFilterEvEEEDaRT_EUlffRNS_6VecOps4RVecIiEEE_NS1_18ExtraArgsForDefine4NoneEED0Ev, symObjAddr: 0x1407C, symBinAddr: 0x1000176AC, symSize: 0x14 }
  - { offsetInCU: 0x13953D, offset: 0x13953D, size: 0x8, addend: 0x0, symName: __ZN4ROOT6Detail3RDF7RDefineIZ16DeclareVariablesINS_3RDF10RInterfaceINS1_13RJittedFilterEvEEEDaRT_EUlffRNS_6VecOps4RVecIiEEE_NS1_18ExtraArgsForDefine4NoneEE8InitSlotEP11TTreeReaderj, symObjAddr: 0x14090, symBinAddr: 0x1000176C0, symSize: 0x11C }
  - { offsetInCU: 0x139734, offset: 0x139734, size: 0x8, addend: 0x0, symName: __ZN4ROOT6Detail3RDF7RDefineIZ16DeclareVariablesINS_3RDF10RInterfaceINS1_13RJittedFilterEvEEEDaRT_EUlffRNS_6VecOps4RVecIiEEE_NS1_18ExtraArgsForDefine4NoneEE11GetValuePtrEj, symObjAddr: 0x141AC, symBinAddr: 0x1000177DC, symSize: 0x10 }
  - { offsetInCU: 0x139788, offset: 0x139788, size: 0x8, addend: 0x0, symName: __ZNK4ROOT6Detail3RDF7RDefineIZ16DeclareVariablesINS_3RDF10RInterfaceINS1_13RJittedFilterEvEEEDaRT_EUlffRNS_6VecOps4RVecIiEEE_NS1_18ExtraArgsForDefine4NoneEE9GetTypeIdEv, symObjAddr: 0x141BC, symBinAddr: 0x1000177EC, symSize: 0xC }
  - { offsetInCU: 0x13988B, offset: 0x13988B, size: 0x8, addend: 0x0, symName: __ZN4ROOT6Detail3RDF7RDefineIZ16DeclareVariablesINS_3RDF10RInterfaceINS1_13RJittedFilterEvEEEDaRT_EUlffRNS_6VecOps4RVecIiEEE_NS1_18ExtraArgsForDefine4NoneEE6UpdateEjx, symObjAddr: 0x141C8, symBinAddr: 0x1000177F8, symSize: 0x18C }
  - { offsetInCU: 0x139B64, offset: 0x139B64, size: 0x8, addend: 0x0, symName: __ZN4ROOT6Detail3RDF7RDefineIZ16DeclareVariablesINS_3RDF10RInterfaceINS1_13RJittedFilterEvEEEDaRT_EUlffRNS_6VecOps4RVecIiEEE_NS1_18ExtraArgsForDefine4NoneEE6UpdateEjRKNS4_11RSampleInfoE, symObjAddr: 0x14354, symBinAddr: 0x100017984, symSize: 0x4 }
  - { offsetInCU: 0x139BBE, offset: 0x139BBE, size: 0x8, addend: 0x0, symName: __ZN4ROOT6Detail3RDF7RDefineIZ16DeclareVariablesINS_3RDF10RInterfaceINS1_13RJittedFilterEvEEEDaRT_EUlffRNS_6VecOps4RVecIiEEE_NS1_18ExtraArgsForDefine4NoneEE12FinalizeSlotEj, symObjAddr: 0x14358, symBinAddr: 0x100017988, symSize: 0x54 }
  - { offsetInCU: 0x139CFA, offset: 0x139CFA, size: 0x8, addend: 0x0, symName: __ZN4ROOT6Detail3RDF7RDefineIZ16DeclareVariablesINS_3RDF10RInterfaceINS1_13RJittedFilterEvEEEDaRT_EUlffRNS_6VecOps4RVecIiEEE_NS1_18ExtraArgsForDefine4NoneEE14MakeVariationsERKNSt3__16vectorINSJ_12basic_stringIcNSJ_11char_traitsIcEENSJ_9allocatorIcEEEENSO_ISQ_EEEE, symObjAddr: 0x143AC, symBinAddr: 0x1000179DC, symSize: 0x208 }
  - { offsetInCU: 0x13A1BD, offset: 0x13A1BD, size: 0x8, addend: 0x0, symName: __ZN4ROOT6Detail3RDF7RDefineIZ16DeclareVariablesINS_3RDF10RInterfaceINS1_13RJittedFilterEvEEEDaRT_EUlffRNS_6VecOps4RVecIiEEE_NS1_18ExtraArgsForDefine4NoneEE15GetVariedDefineERKNSt3__112basic_stringIcNSJ_11char_traitsIcEENSJ_9allocatorIcEEEE, symObjAddr: 0x145B4, symBinAddr: 0x100017BE4, symSize: 0x108 }
  - { offsetInCU: 0x13A34D, offset: 0x13A34D, size: 0x8, addend: 0x0, symName: __ZN4ROOT6Detail3RDF7RDefineIZ16DeclareVariablesINS_3RDF10RInterfaceINS1_13RJittedFilterEvEEEDaRT_EUlffRNS_6VecOps4RVecIiEEE_NS1_18ExtraArgsForDefine4NoneEED2Ev, symObjAddr: 0x146BC, symBinAddr: 0x100017CEC, symSize: 0xB0 }
  - { offsetInCU: 0x13A358, offset: 0x13A358, size: 0x8, addend: 0x0, symName: __ZN4ROOT6Detail3RDF7RDefineIZ16DeclareVariablesINS_3RDF10RInterfaceINS1_13RJittedFilterEvEEEDaRT_EUlffRNS_6VecOps4RVecIiEEE_NS1_18ExtraArgsForDefine4NoneEE15GetVariedDefineERKNSt3__112basic_stringIcNSJ_11char_traitsIcEENSJ_9allocatorIcEEEE.cold.1, symObjAddr: 0x1E40C, symBinAddr: 0x10002255C, symSize: 0x24 }
  - { offsetInCU: 0x13A6B7, offset: 0x13A6B7, size: 0x8, addend: 0x0, symName: __ZNSt3__120__shared_ptr_emplaceIN4ROOT6Detail3RDF7RDefineIZ14AddEventWeightINS1_3RDF10RInterfaceINS3_13RJittedFilterEvEEEDaRT_RKNS_12basic_stringIcNS_11char_traitsIcEENS_9allocatorIcEEEEffffEUlvE_NS3_18ExtraArgsForDefine4NoneEEENSG_ISO_EEEC2B7v160006IJRNS_17basic_string_viewIcSF_EERSI_SL_RKNS_6vectorISI_NSG_ISI_EEEERNS1_8Internal3RDF15RColumnRegisterERNS3_12RLoopManagerEEEESP_DpOT_, symObjAddr: 0x14D10, symBinAddr: 0x100018340, symSize: 0xE4 }
  - { offsetInCU: 0x13AC8D, offset: 0x13AC8D, size: 0x8, addend: 0x0, symName: __ZNSt3__110shared_ptrIN4ROOT6Detail3RDF7RDefineIZ14AddEventWeightINS1_3RDF10RInterfaceINS3_13RJittedFilterEvEEEDaRT_RKNS_12basic_stringIcNS_11char_traitsIcEENS_9allocatorIcEEEEffffEUlvE_NS3_18ExtraArgsForDefine4NoneEEEED1B7v160006Ev, symObjAddr: 0x14CB0, symBinAddr: 0x1000182E0, symSize: 0x60 }
  - { offsetInCU: 0x13AD88, offset: 0x13AD88, size: 0x8, addend: 0x0, symName: __ZN4ROOT6Detail3RDF7RDefineIZ14AddEventWeightINS_3RDF10RInterfaceINS1_13RJittedFilterEvEEEDaRT_RKNSt3__112basic_stringIcNSB_11char_traitsIcEENSB_9allocatorIcEEEEffffEUlvE_NS1_18ExtraArgsForDefine4NoneEEC2ENSB_17basic_string_viewIcSE_EESP_SK_RKNSB_6vectorISH_NSF_ISH_EEEERKNS_8Internal3RDF15RColumnRegisterERNS1_12RLoopManagerESJ_, symObjAddr: 0x14E38, symBinAddr: 0x100018468, symSize: 0x188 }
  - { offsetInCU: 0x13B4FF, offset: 0x13B4FF, size: 0x8, addend: 0x0, symName: __ZNSt3__120__shared_ptr_emplaceIN4ROOT6Detail3RDF7RDefineIZ14AddEventWeightINS1_3RDF10RInterfaceINS3_13RJittedFilterEvEEEDaRT_RKNS_12basic_stringIcNS_11char_traitsIcEENS_9allocatorIcEEEEffffEUlvE_NS3_18ExtraArgsForDefine4NoneEEENSG_ISO_EEED1Ev, symObjAddr: 0x14DF4, symBinAddr: 0x100018424, symSize: 0x14 }
  - { offsetInCU: 0x13B521, offset: 0x13B521, size: 0x8, addend: 0x0, symName: __ZNSt3__120__shared_ptr_emplaceIN4ROOT6Detail3RDF7RDefineIZ14AddEventWeightINS1_3RDF10RInterfaceINS3_13RJittedFilterEvEEEDaRT_RKNS_12basic_stringIcNS_11char_traitsIcEENS_9allocatorIcEEEEffffEUlvE_NS3_18ExtraArgsForDefine4NoneEEENSG_ISO_EEED1Ev, symObjAddr: 0x14DF4, symBinAddr: 0x100018424, symSize: 0x14 }
  - { offsetInCU: 0x13B559, offset: 0x13B559, size: 0x8, addend: 0x0, symName: __ZNSt3__120__shared_ptr_emplaceIN4ROOT6Detail3RDF7RDefineIZ14AddEventWeightINS1_3RDF10RInterfaceINS3_13RJittedFilterEvEEEDaRT_RKNS_12basic_stringIcNS_11char_traitsIcEENS_9allocatorIcEEEEffffEUlvE_NS3_18ExtraArgsForDefine4NoneEEENSG_ISO_EEED0Ev, symObjAddr: 0x14E08, symBinAddr: 0x100018438, symSize: 0x24 }
  - { offsetInCU: 0x13B5D9, offset: 0x13B5D9, size: 0x8, addend: 0x0, symName: __ZNSt3__120__shared_ptr_emplaceIN4ROOT6Detail3RDF7RDefineIZ14AddEventWeightINS1_3RDF10RInterfaceINS3_13RJittedFilterEvEEEDaRT_RKNS_12basic_stringIcNS_11char_traitsIcEENS_9allocatorIcEEEEffffEUlvE_NS3_18ExtraArgsForDefine4NoneEEENSG_ISO_EEE16__on_zero_sharedEv, symObjAddr: 0x14E2C, symBinAddr: 0x10001845C, symSize: 0x8 }
  - { offsetInCU: 0x13B602, offset: 0x13B602, size: 0x8, addend: 0x0, symName: __ZNSt3__120__shared_ptr_emplaceIN4ROOT6Detail3RDF7RDefineIZ14AddEventWeightINS1_3RDF10RInterfaceINS3_13RJittedFilterEvEEEDaRT_RKNS_12basic_stringIcNS_11char_traitsIcEENS_9allocatorIcEEEEffffEUlvE_NS3_18ExtraArgsForDefine4NoneEEENSG_ISO_EEE16__on_zero_sharedEv, symObjAddr: 0x14E2C, symBinAddr: 0x10001845C, symSize: 0x8 }
  - { offsetInCU: 0x13B648, offset: 0x13B648, size: 0x8, addend: 0x0, symName: __ZN4ROOT6Detail3RDF7RDefineIZ14AddEventWeightINS_3RDF10RInterfaceINS1_13RJittedFilterEvEEEDaRT_RKNSt3__112basic_stringIcNSB_11char_traitsIcEENSB_9allocatorIcEEEEffffEUlvE_NS1_18ExtraArgsForDefine4NoneEED2Ev, symObjAddr: 0x153A8, symBinAddr: 0x1000189D8, symSize: 0xB0 }
  - { offsetInCU: 0x13BDCA, offset: 0x13BDCA, size: 0x8, addend: 0x0, symName: __ZNSt3__120__shared_ptr_emplaceIN4ROOT6Detail3RDF7RDefineIZ14AddEventWeightINS1_3RDF10RInterfaceINS3_13RJittedFilterEvEEEDaRT_RKNS_12basic_stringIcNS_11char_traitsIcEENS_9allocatorIcEEEEffffEUlvE_NS3_18ExtraArgsForDefine4NoneEEENSG_ISO_EEE21__on_zero_shared_weakEv, symObjAddr: 0x14E34, symBinAddr: 0x100018464, symSize: 0x4 }
  - { offsetInCU: 0x13BDFD, offset: 0x13BDFD, size: 0x8, addend: 0x0, symName: __ZNSt3__120__shared_ptr_emplaceIN4ROOT6Detail3RDF7RDefineIZ14AddEventWeightINS1_3RDF10RInterfaceINS3_13RJittedFilterEvEEEDaRT_RKNS_12basic_stringIcNS_11char_traitsIcEENS_9allocatorIcEEEEffffEUlvE_NS3_18ExtraArgsForDefine4NoneEEENSG_ISO_EEE21__on_zero_shared_weakEv, symObjAddr: 0x14E34, symBinAddr: 0x100018464, symSize: 0x4 }
  - { offsetInCU: 0x13BE1F, offset: 0x13BE1F, size: 0x8, addend: 0x0, symName: __ZNSt3__120__shared_ptr_emplaceIN4ROOT6Detail3RDF7RDefineIZ14AddEventWeightINS1_3RDF10RInterfaceINS3_13RJittedFilterEvEEEDaRT_RKNS_12basic_stringIcNS_11char_traitsIcEENS_9allocatorIcEEEEffffEUlvE_NS3_18ExtraArgsForDefine4NoneEEENSG_ISO_EEE21__on_zero_shared_weakEv, symObjAddr: 0x14E34, symBinAddr: 0x100018464, symSize: 0x4 }
  - { offsetInCU: 0x13BE41, offset: 0x13BE41, size: 0x8, addend: 0x0, symName: __ZNSt3__120__shared_ptr_emplaceIN4ROOT6Detail3RDF7RDefineIZ14AddEventWeightINS1_3RDF10RInterfaceINS3_13RJittedFilterEvEEEDaRT_RKNS_12basic_stringIcNS_11char_traitsIcEENS_9allocatorIcEEEEffffEUlvE_NS3_18ExtraArgsForDefine4NoneEEENSG_ISO_EEE21__on_zero_shared_weakEv, symObjAddr: 0x14E34, symBinAddr: 0x100018464, symSize: 0x4 }
  - { offsetInCU: 0x13BE6E, offset: 0x13BE6E, size: 0x8, addend: 0x0, symName: __ZNSt3__120__shared_ptr_emplaceIN4ROOT6Detail3RDF7RDefineIZ14AddEventWeightINS1_3RDF10RInterfaceINS3_13RJittedFilterEvEEEDaRT_RKNS_12basic_stringIcNS_11char_traitsIcEENS_9allocatorIcEEEEffffEUlvE_NS3_18ExtraArgsForDefine4NoneEEENSG_ISO_EEE21__on_zero_shared_weakEv, symObjAddr: 0x14E34, symBinAddr: 0x100018464, symSize: 0x4 }
  - { offsetInCU: 0x13BE96, offset: 0x13BE96, size: 0x8, addend: 0x0, symName: __ZNSt3__120__shared_ptr_emplaceIN4ROOT6Detail3RDF7RDefineIZ14AddEventWeightINS1_3RDF10RInterfaceINS3_13RJittedFilterEvEEEDaRT_RKNS_12basic_stringIcNS_11char_traitsIcEENS_9allocatorIcEEEEffffEUlvE_NS3_18ExtraArgsForDefine4NoneEEENSG_ISO_EEE21__on_zero_shared_weakEv, symObjAddr: 0x14E34, symBinAddr: 0x100018464, symSize: 0x4 }
  - { offsetInCU: 0x13C164, offset: 0x13C164, size: 0x8, addend: 0x0, symName: __ZN4ROOT6Detail3RDF7RDefineIZ14AddEventWeightINS_3RDF10RInterfaceINS1_13RJittedFilterEvEEEDaRT_RKNSt3__112basic_stringIcNSB_11char_traitsIcEENSB_9allocatorIcEEEEffffEUlvE_NS1_18ExtraArgsForDefine4NoneEED1Ev, symObjAddr: 0x14FC0, symBinAddr: 0x1000185F0, symSize: 0x4 }
  - { offsetInCU: 0x13C187, offset: 0x13C187, size: 0x8, addend: 0x0, symName: __ZN4ROOT6Detail3RDF7RDefineIZ14AddEventWeightINS_3RDF10RInterfaceINS1_13RJittedFilterEvEEEDaRT_RKNSt3__112basic_stringIcNSB_11char_traitsIcEENSB_9allocatorIcEEEEffffEUlvE_NS1_18ExtraArgsForDefine4NoneEED1Ev, symObjAddr: 0x14FC0, symBinAddr: 0x1000185F0, symSize: 0x4 }
  - { offsetInCU: 0x13C19A, offset: 0x13C19A, size: 0x8, addend: 0x0, symName: __ZN4ROOT6Detail3RDF7RDefineIZ14AddEventWeightINS_3RDF10RInterfaceINS1_13RJittedFilterEvEEEDaRT_RKNSt3__112basic_stringIcNSB_11char_traitsIcEENSB_9allocatorIcEEEEffffEUlvE_NS1_18ExtraArgsForDefine4NoneEED0Ev, symObjAddr: 0x14FC4, symBinAddr: 0x1000185F4, symSize: 0x14 }
  - { offsetInCU: 0x13C218, offset: 0x13C218, size: 0x8, addend: 0x0, symName: __ZN4ROOT6Detail3RDF7RDefineIZ14AddEventWeightINS_3RDF10RInterfaceINS1_13RJittedFilterEvEEEDaRT_RKNSt3__112basic_stringIcNSB_11char_traitsIcEENSB_9allocatorIcEEEEffffEUlvE_NS1_18ExtraArgsForDefine4NoneEE8InitSlotEP11TTreeReaderj, symObjAddr: 0x14FD8, symBinAddr: 0x100018608, symSize: 0x1C }
  - { offsetInCU: 0x13C26A, offset: 0x13C26A, size: 0x8, addend: 0x0, symName: __ZN4ROOT6Detail3RDF7RDefineIZ14AddEventWeightINS_3RDF10RInterfaceINS1_13RJittedFilterEvEEEDaRT_RKNSt3__112basic_stringIcNSB_11char_traitsIcEENSB_9allocatorIcEEEEffffEUlvE_NS1_18ExtraArgsForDefine4NoneEE8InitSlotEP11TTreeReaderj, symObjAddr: 0x14FD8, symBinAddr: 0x100018608, symSize: 0x1C }
  - { offsetInCU: 0x13C2A5, offset: 0x13C2A5, size: 0x8, addend: 0x0, symName: __ZN4ROOT6Detail3RDF7RDefineIZ14AddEventWeightINS_3RDF10RInterfaceINS1_13RJittedFilterEvEEEDaRT_RKNSt3__112basic_stringIcNSB_11char_traitsIcEENSB_9allocatorIcEEEEffffEUlvE_NS1_18ExtraArgsForDefine4NoneEE11GetValuePtrEj, symObjAddr: 0x14FF4, symBinAddr: 0x100018624, symSize: 0x10 }
  - { offsetInCU: 0x13C2F9, offset: 0x13C2F9, size: 0x8, addend: 0x0, symName: __ZNK4ROOT6Detail3RDF7RDefineIZ14AddEventWeightINS_3RDF10RInterfaceINS1_13RJittedFilterEvEEEDaRT_RKNSt3__112basic_stringIcNSB_11char_traitsIcEENSB_9allocatorIcEEEEffffEUlvE_NS1_18ExtraArgsForDefine4NoneEE9GetTypeIdEv, symObjAddr: 0x15004, symBinAddr: 0x100018634, symSize: 0xC }
  - { offsetInCU: 0x13C36B, offset: 0x13C36B, size: 0x8, addend: 0x0, symName: __ZN4ROOT6Detail3RDF7RDefineIZ14AddEventWeightINS_3RDF10RInterfaceINS1_13RJittedFilterEvEEEDaRT_RKNSt3__112basic_stringIcNSB_11char_traitsIcEENSB_9allocatorIcEEEEffffEUlvE_NS1_18ExtraArgsForDefine4NoneEE6UpdateEjx, symObjAddr: 0x15010, symBinAddr: 0x100018640, symSize: 0x30 }
  - { offsetInCU: 0x13C3AE, offset: 0x13C3AE, size: 0x8, addend: 0x0, symName: __ZN4ROOT6Detail3RDF7RDefineIZ14AddEventWeightINS_3RDF10RInterfaceINS1_13RJittedFilterEvEEEDaRT_RKNSt3__112basic_stringIcNSB_11char_traitsIcEENSB_9allocatorIcEEEEffffEUlvE_NS1_18ExtraArgsForDefine4NoneEE6UpdateEjx, symObjAddr: 0x15010, symBinAddr: 0x100018640, symSize: 0x30 }
  - { offsetInCU: 0x13C415, offset: 0x13C415, size: 0x8, addend: 0x0, symName: __ZN4ROOT6Detail3RDF7RDefineIZ14AddEventWeightINS_3RDF10RInterfaceINS1_13RJittedFilterEvEEEDaRT_RKNSt3__112basic_stringIcNSB_11char_traitsIcEENSB_9allocatorIcEEEEffffEUlvE_NS1_18ExtraArgsForDefine4NoneEE6UpdateEjRKNS4_11RSampleInfoE, symObjAddr: 0x15040, symBinAddr: 0x100018670, symSize: 0x4 }
  - { offsetInCU: 0x13C44E, offset: 0x13C44E, size: 0x8, addend: 0x0, symName: __ZN4ROOT6Detail3RDF7RDefineIZ14AddEventWeightINS_3RDF10RInterfaceINS1_13RJittedFilterEvEEEDaRT_RKNSt3__112basic_stringIcNSB_11char_traitsIcEENSB_9allocatorIcEEEEffffEUlvE_NS1_18ExtraArgsForDefine4NoneEE12FinalizeSlotEj, symObjAddr: 0x15044, symBinAddr: 0x100018674, symSize: 0x40 }
  - { offsetInCU: 0x13C506, offset: 0x13C506, size: 0x8, addend: 0x0, symName: __ZN4ROOT6Detail3RDF7RDefineIZ14AddEventWeightINS_3RDF10RInterfaceINS1_13RJittedFilterEvEEEDaRT_RKNSt3__112basic_stringIcNSB_11char_traitsIcEENSB_9allocatorIcEEEEffffEUlvE_NS1_18ExtraArgsForDefine4NoneEE14MakeVariationsERKNSB_6vectorISH_NSF_ISH_EEEE, symObjAddr: 0x15084, symBinAddr: 0x1000186B4, symSize: 0x208 }
  - { offsetInCU: 0x13C9C9, offset: 0x13C9C9, size: 0x8, addend: 0x0, symName: __ZN4ROOT6Detail3RDF7RDefineIZ14AddEventWeightINS_3RDF10RInterfaceINS1_13RJittedFilterEvEEEDaRT_RKNSt3__112basic_stringIcNSB_11char_traitsIcEENSB_9allocatorIcEEEEffffEUlvE_NS1_18ExtraArgsForDefine4NoneEE15GetVariedDefineESJ_, symObjAddr: 0x1528C, symBinAddr: 0x1000188BC, symSize: 0x108 }
  - { offsetInCU: 0x13CB59, offset: 0x13CB59, size: 0x8, addend: 0x0, symName: __ZNKSt3__16vectorINS_5arrayIPN4ROOT6Detail3RDF17RColumnReaderBaseELm0EEENS_9allocatorIS7_EEE20__throw_length_errorB7v160006Ev, symObjAddr: 0x15394, symBinAddr: 0x1000189C4, symSize: 0x14 }
  - { offsetInCU: 0x13CB64, offset: 0x13CB64, size: 0x8, addend: 0x0, symName: __ZN4ROOT6Detail3RDF7RDefineIZ14AddEventWeightINS_3RDF10RInterfaceINS1_13RJittedFilterEvEEEDaRT_RKNSt3__112basic_stringIcNSB_11char_traitsIcEENSB_9allocatorIcEEEEffffEUlvE_NS1_18ExtraArgsForDefine4NoneEE15GetVariedDefineESJ_.cold.1, symObjAddr: 0x1E430, symBinAddr: 0x100022580, symSize: 0x24 }
  - { offsetInCU: 0x13CB7C, offset: 0x13CB7C, size: 0x8, addend: 0x0, symName: __ZNKSt3__16vectorINS_5arrayIPN4ROOT6Detail3RDF17RColumnReaderBaseELm0EEENS_9allocatorIS7_EEE20__throw_length_errorB7v160006Ev, symObjAddr: 0x15394, symBinAddr: 0x1000189C4, symSize: 0x14 }
  - { offsetInCU: 0x13CBA5, offset: 0x13CBA5, size: 0x8, addend: 0x0, symName: __ZN4ROOT6Detail3RDF7RDefineIZ14AddEventWeightINS_3RDF10RInterfaceINS1_13RJittedFilterEvEEEDaRT_RKNSt3__112basic_stringIcNSB_11char_traitsIcEENSB_9allocatorIcEEEEffffEUlvE_NS1_18ExtraArgsForDefine4NoneEED2Ev, symObjAddr: 0x153A8, symBinAddr: 0x1000189D8, symSize: 0xB0 }
  - { offsetInCU: 0x13CEF7, offset: 0x13CEF7, size: 0x8, addend: 0x0, symName: __ZNSt3__120__shared_ptr_emplaceIN4ROOT6Detail3RDF7RDefineIZ14AddEventWeightINS1_3RDF10RInterfaceINS3_13RJittedFilterEvEEEDaRT_RKNS_12basic_stringIcNS_11char_traitsIcEENS_9allocatorIcEEEEffffEUlvE0_NS3_18ExtraArgsForDefine4NoneEEENSG_ISO_EEEC2B7v160006IJRNS_17basic_string_viewIcSF_EERSI_SL_RKNS_6vectorISI_NSG_ISI_EEEERNS1_8Internal3RDF15RColumnRegisterERNS3_12RLoopManagerEEEESP_DpOT_, symObjAddr: 0x159FC, symBinAddr: 0x10001902C, symSize: 0xF0 }
  - { offsetInCU: 0x13D4CD, offset: 0x13D4CD, size: 0x8, addend: 0x0, symName: __ZNSt3__110shared_ptrIN4ROOT6Detail3RDF7RDefineIZ14AddEventWeightINS1_3RDF10RInterfaceINS3_13RJittedFilterEvEEEDaRT_RKNS_12basic_stringIcNS_11char_traitsIcEENS_9allocatorIcEEEEffffEUlvE0_NS3_18ExtraArgsForDefine4NoneEEEED1B7v160006Ev, symObjAddr: 0x1599C, symBinAddr: 0x100018FCC, symSize: 0x60 }
  - { offsetInCU: 0x13D5C8, offset: 0x13D5C8, size: 0x8, addend: 0x0, symName: __ZN4ROOT6Detail3RDF7RDefineIZ14AddEventWeightINS_3RDF10RInterfaceINS1_13RJittedFilterEvEEEDaRT_RKNSt3__112basic_stringIcNSB_11char_traitsIcEENSB_9allocatorIcEEEEffffEUlvE0_NS1_18ExtraArgsForDefine4NoneEEC2ENSB_17basic_string_viewIcSE_EESP_SK_RKNSB_6vectorISH_NSF_ISH_EEEERKNS_8Internal3RDF15RColumnRegisterERNS1_12RLoopManagerESJ_, symObjAddr: 0x15B30, symBinAddr: 0x100019160, symSize: 0x1B8 }
  - { offsetInCU: 0x13DD43, offset: 0x13DD43, size: 0x8, addend: 0x0, symName: __ZNSt3__120__shared_ptr_emplaceIN4ROOT6Detail3RDF7RDefineIZ14AddEventWeightINS1_3RDF10RInterfaceINS3_13RJittedFilterEvEEEDaRT_RKNS_12basic_stringIcNS_11char_traitsIcEENS_9allocatorIcEEEEffffEUlvE0_NS3_18ExtraArgsForDefine4NoneEEENSG_ISO_EEED1Ev, symObjAddr: 0x15AEC, symBinAddr: 0x10001911C, symSize: 0x14 }
  - { offsetInCU: 0x13DD65, offset: 0x13DD65, size: 0x8, addend: 0x0, symName: __ZNSt3__120__shared_ptr_emplaceIN4ROOT6Detail3RDF7RDefineIZ14AddEventWeightINS1_3RDF10RInterfaceINS3_13RJittedFilterEvEEEDaRT_RKNS_12basic_stringIcNS_11char_traitsIcEENS_9allocatorIcEEEEffffEUlvE0_NS3_18ExtraArgsForDefine4NoneEEENSG_ISO_EEED1Ev, symObjAddr: 0x15AEC, symBinAddr: 0x10001911C, symSize: 0x14 }
  - { offsetInCU: 0x13DD9D, offset: 0x13DD9D, size: 0x8, addend: 0x0, symName: __ZNSt3__120__shared_ptr_emplaceIN4ROOT6Detail3RDF7RDefineIZ14AddEventWeightINS1_3RDF10RInterfaceINS3_13RJittedFilterEvEEEDaRT_RKNS_12basic_stringIcNS_11char_traitsIcEENS_9allocatorIcEEEEffffEUlvE0_NS3_18ExtraArgsForDefine4NoneEEENSG_ISO_EEED0Ev, symObjAddr: 0x15B00, symBinAddr: 0x100019130, symSize: 0x24 }
  - { offsetInCU: 0x13DE1D, offset: 0x13DE1D, size: 0x8, addend: 0x0, symName: __ZNSt3__120__shared_ptr_emplaceIN4ROOT6Detail3RDF7RDefineIZ14AddEventWeightINS1_3RDF10RInterfaceINS3_13RJittedFilterEvEEEDaRT_RKNS_12basic_stringIcNS_11char_traitsIcEENS_9allocatorIcEEEEffffEUlvE0_NS3_18ExtraArgsForDefine4NoneEEENSG_ISO_EEE16__on_zero_sharedEv, symObjAddr: 0x15B24, symBinAddr: 0x100019154, symSize: 0x8 }
  - { offsetInCU: 0x13DE46, offset: 0x13DE46, size: 0x8, addend: 0x0, symName: __ZNSt3__120__shared_ptr_emplaceIN4ROOT6Detail3RDF7RDefineIZ14AddEventWeightINS1_3RDF10RInterfaceINS3_13RJittedFilterEvEEEDaRT_RKNS_12basic_stringIcNS_11char_traitsIcEENS_9allocatorIcEEEEffffEUlvE0_NS3_18ExtraArgsForDefine4NoneEEENSG_ISO_EEE16__on_zero_sharedEv, symObjAddr: 0x15B24, symBinAddr: 0x100019154, symSize: 0x8 }
  - { offsetInCU: 0x13DE8C, offset: 0x13DE8C, size: 0x8, addend: 0x0, symName: __ZN4ROOT6Detail3RDF7RDefineIZ14AddEventWeightINS_3RDF10RInterfaceINS1_13RJittedFilterEvEEEDaRT_RKNSt3__112basic_stringIcNSB_11char_traitsIcEENSB_9allocatorIcEEEEffffEUlvE0_NS1_18ExtraArgsForDefine4NoneEED2Ev, symObjAddr: 0x160E8, symBinAddr: 0x100019718, symSize: 0xB0 }
  - { offsetInCU: 0x13E60E, offset: 0x13E60E, size: 0x8, addend: 0x0, symName: __ZNSt3__120__shared_ptr_emplaceIN4ROOT6Detail3RDF7RDefineIZ14AddEventWeightINS1_3RDF10RInterfaceINS3_13RJittedFilterEvEEEDaRT_RKNS_12basic_stringIcNS_11char_traitsIcEENS_9allocatorIcEEEEffffEUlvE0_NS3_18ExtraArgsForDefine4NoneEEENSG_ISO_EEE21__on_zero_shared_weakEv, symObjAddr: 0x15B2C, symBinAddr: 0x10001915C, symSize: 0x4 }
  - { offsetInCU: 0x13E641, offset: 0x13E641, size: 0x8, addend: 0x0, symName: __ZNSt3__120__shared_ptr_emplaceIN4ROOT6Detail3RDF7RDefineIZ14AddEventWeightINS1_3RDF10RInterfaceINS3_13RJittedFilterEvEEEDaRT_RKNS_12basic_stringIcNS_11char_traitsIcEENS_9allocatorIcEEEEffffEUlvE0_NS3_18ExtraArgsForDefine4NoneEEENSG_ISO_EEE21__on_zero_shared_weakEv, symObjAddr: 0x15B2C, symBinAddr: 0x10001915C, symSize: 0x4 }
  - { offsetInCU: 0x13E663, offset: 0x13E663, size: 0x8, addend: 0x0, symName: __ZNSt3__120__shared_ptr_emplaceIN4ROOT6Detail3RDF7RDefineIZ14AddEventWeightINS1_3RDF10RInterfaceINS3_13RJittedFilterEvEEEDaRT_RKNS_12basic_stringIcNS_11char_traitsIcEENS_9allocatorIcEEEEffffEUlvE0_NS3_18ExtraArgsForDefine4NoneEEENSG_ISO_EEE21__on_zero_shared_weakEv, symObjAddr: 0x15B2C, symBinAddr: 0x10001915C, symSize: 0x4 }
  - { offsetInCU: 0x13E685, offset: 0x13E685, size: 0x8, addend: 0x0, symName: __ZNSt3__120__shared_ptr_emplaceIN4ROOT6Detail3RDF7RDefineIZ14AddEventWeightINS1_3RDF10RInterfaceINS3_13RJittedFilterEvEEEDaRT_RKNS_12basic_stringIcNS_11char_traitsIcEENS_9allocatorIcEEEEffffEUlvE0_NS3_18ExtraArgsForDefine4NoneEEENSG_ISO_EEE21__on_zero_shared_weakEv, symObjAddr: 0x15B2C, symBinAddr: 0x10001915C, symSize: 0x4 }
  - { offsetInCU: 0x13E6B2, offset: 0x13E6B2, size: 0x8, addend: 0x0, symName: __ZNSt3__120__shared_ptr_emplaceIN4ROOT6Detail3RDF7RDefineIZ14AddEventWeightINS1_3RDF10RInterfaceINS3_13RJittedFilterEvEEEDaRT_RKNS_12basic_stringIcNS_11char_traitsIcEENS_9allocatorIcEEEEffffEUlvE0_NS3_18ExtraArgsForDefine4NoneEEENSG_ISO_EEE21__on_zero_shared_weakEv, symObjAddr: 0x15B2C, symBinAddr: 0x10001915C, symSize: 0x4 }
  - { offsetInCU: 0x13E6DA, offset: 0x13E6DA, size: 0x8, addend: 0x0, symName: __ZNSt3__120__shared_ptr_emplaceIN4ROOT6Detail3RDF7RDefineIZ14AddEventWeightINS1_3RDF10RInterfaceINS3_13RJittedFilterEvEEEDaRT_RKNS_12basic_stringIcNS_11char_traitsIcEENS_9allocatorIcEEEEffffEUlvE0_NS3_18ExtraArgsForDefine4NoneEEENSG_ISO_EEE21__on_zero_shared_weakEv, symObjAddr: 0x15B2C, symBinAddr: 0x10001915C, symSize: 0x4 }
  - { offsetInCU: 0x13E706, offset: 0x13E706, size: 0x8, addend: 0x0, symName: __ZN4ROOT6Detail3RDF7RDefineIZ14AddEventWeightINS_3RDF10RInterfaceINS1_13RJittedFilterEvEEEDaRT_RKNSt3__112basic_stringIcNSB_11char_traitsIcEENSB_9allocatorIcEEEEffffEUlvE0_NS1_18ExtraArgsForDefine4NoneEED1Ev, symObjAddr: 0x15CE8, symBinAddr: 0x100019318, symSize: 0x4 }
  - { offsetInCU: 0x13E729, offset: 0x13E729, size: 0x8, addend: 0x0, symName: __ZN4ROOT6Detail3RDF7RDefineIZ14AddEventWeightINS_3RDF10RInterfaceINS1_13RJittedFilterEvEEEDaRT_RKNSt3__112basic_stringIcNSB_11char_traitsIcEENSB_9allocatorIcEEEEffffEUlvE0_NS1_18ExtraArgsForDefine4NoneEED1Ev, symObjAddr: 0x15CE8, symBinAddr: 0x100019318, symSize: 0x4 }
  - { offsetInCU: 0x13E73C, offset: 0x13E73C, size: 0x8, addend: 0x0, symName: __ZN4ROOT6Detail3RDF7RDefineIZ14AddEventWeightINS_3RDF10RInterfaceINS1_13RJittedFilterEvEEEDaRT_RKNSt3__112basic_stringIcNSB_11char_traitsIcEENSB_9allocatorIcEEEEffffEUlvE0_NS1_18ExtraArgsForDefine4NoneEED0Ev, symObjAddr: 0x15CEC, symBinAddr: 0x10001931C, symSize: 0x14 }
  - { offsetInCU: 0x13E796, offset: 0x13E796, size: 0x8, addend: 0x0, symName: __ZN4ROOT6Detail3RDF7RDefineIZ14AddEventWeightINS_3RDF10RInterfaceINS1_13RJittedFilterEvEEEDaRT_RKNSt3__112basic_stringIcNSB_11char_traitsIcEENSB_9allocatorIcEEEEffffEUlvE0_NS1_18ExtraArgsForDefine4NoneEE8InitSlotEP11TTreeReaderj, symObjAddr: 0x15D00, symBinAddr: 0x100019330, symSize: 0x1C }
  - { offsetInCU: 0x13E7E8, offset: 0x13E7E8, size: 0x8, addend: 0x0, symName: __ZN4ROOT6Detail3RDF7RDefineIZ14AddEventWeightINS_3RDF10RInterfaceINS1_13RJittedFilterEvEEEDaRT_RKNSt3__112basic_stringIcNSB_11char_traitsIcEENSB_9allocatorIcEEEEffffEUlvE0_NS1_18ExtraArgsForDefine4NoneEE8InitSlotEP11TTreeReaderj, symObjAddr: 0x15D00, symBinAddr: 0x100019330, symSize: 0x1C }
  - { offsetInCU: 0x13E823, offset: 0x13E823, size: 0x8, addend: 0x0, symName: __ZN4ROOT6Detail3RDF7RDefineIZ14AddEventWeightINS_3RDF10RInterfaceINS1_13RJittedFilterEvEEEDaRT_RKNSt3__112basic_stringIcNSB_11char_traitsIcEENSB_9allocatorIcEEEEffffEUlvE0_NS1_18ExtraArgsForDefine4NoneEE11GetValuePtrEj, symObjAddr: 0x15D1C, symBinAddr: 0x10001934C, symSize: 0x10 }
  - { offsetInCU: 0x13E877, offset: 0x13E877, size: 0x8, addend: 0x0, symName: __ZNK4ROOT6Detail3RDF7RDefineIZ14AddEventWeightINS_3RDF10RInterfaceINS1_13RJittedFilterEvEEEDaRT_RKNSt3__112basic_stringIcNSB_11char_traitsIcEENSB_9allocatorIcEEEEffffEUlvE0_NS1_18ExtraArgsForDefine4NoneEE9GetTypeIdEv, symObjAddr: 0x15D2C, symBinAddr: 0x10001935C, symSize: 0xC }
  - { offsetInCU: 0x13E915, offset: 0x13E915, size: 0x8, addend: 0x0, symName: __ZN4ROOT6Detail3RDF7RDefineIZ14AddEventWeightINS_3RDF10RInterfaceINS1_13RJittedFilterEvEEEDaRT_RKNSt3__112basic_stringIcNSB_11char_traitsIcEENSB_9allocatorIcEEEEffffEUlvE0_NS1_18ExtraArgsForDefine4NoneEE6UpdateEjx, symObjAddr: 0x15D38, symBinAddr: 0x100019368, symSize: 0x4C }
  - { offsetInCU: 0x13E958, offset: 0x13E958, size: 0x8, addend: 0x0, symName: __ZN4ROOT6Detail3RDF7RDefineIZ14AddEventWeightINS_3RDF10RInterfaceINS1_13RJittedFilterEvEEEDaRT_RKNSt3__112basic_stringIcNSB_11char_traitsIcEENSB_9allocatorIcEEEEffffEUlvE0_NS1_18ExtraArgsForDefine4NoneEE6UpdateEjx, symObjAddr: 0x15D38, symBinAddr: 0x100019368, symSize: 0x4C }
  - { offsetInCU: 0x13E9D5, offset: 0x13E9D5, size: 0x8, addend: 0x0, symName: __ZN4ROOT6Detail3RDF7RDefineIZ14AddEventWeightINS_3RDF10RInterfaceINS1_13RJittedFilterEvEEEDaRT_RKNSt3__112basic_stringIcNSB_11char_traitsIcEENSB_9allocatorIcEEEEffffEUlvE0_NS1_18ExtraArgsForDefine4NoneEE6UpdateEjRKNS4_11RSampleInfoE, symObjAddr: 0x15D84, symBinAddr: 0x1000193B4, symSize: 0x4 }
  - { offsetInCU: 0x13EA0E, offset: 0x13EA0E, size: 0x8, addend: 0x0, symName: __ZN4ROOT6Detail3RDF7RDefineIZ14AddEventWeightINS_3RDF10RInterfaceINS1_13RJittedFilterEvEEEDaRT_RKNSt3__112basic_stringIcNSB_11char_traitsIcEENSB_9allocatorIcEEEEffffEUlvE0_NS1_18ExtraArgsForDefine4NoneEE12FinalizeSlotEj, symObjAddr: 0x15D88, symBinAddr: 0x1000193B8, symSize: 0x40 }
  - { offsetInCU: 0x13EAC6, offset: 0x13EAC6, size: 0x8, addend: 0x0, symName: __ZN4ROOT6Detail3RDF7RDefineIZ14AddEventWeightINS_3RDF10RInterfaceINS1_13RJittedFilterEvEEEDaRT_RKNSt3__112basic_stringIcNSB_11char_traitsIcEENSB_9allocatorIcEEEEffffEUlvE0_NS1_18ExtraArgsForDefine4NoneEE14MakeVariationsERKNSB_6vectorISH_NSF_ISH_EEEE, symObjAddr: 0x15DC8, symBinAddr: 0x1000193F8, symSize: 0x218 }
  - { offsetInCU: 0x13EF89, offset: 0x13EF89, size: 0x8, addend: 0x0, symName: __ZN4ROOT6Detail3RDF7RDefineIZ14AddEventWeightINS_3RDF10RInterfaceINS1_13RJittedFilterEvEEEDaRT_RKNSt3__112basic_stringIcNSB_11char_traitsIcEENSB_9allocatorIcEEEEffffEUlvE0_NS1_18ExtraArgsForDefine4NoneEE15GetVariedDefineESJ_, symObjAddr: 0x15FE0, symBinAddr: 0x100019610, symSize: 0x108 }
  - { offsetInCU: 0x13F119, offset: 0x13F119, size: 0x8, addend: 0x0, symName: __ZN4ROOT6Detail3RDF7RDefineIZ14AddEventWeightINS_3RDF10RInterfaceINS1_13RJittedFilterEvEEEDaRT_RKNSt3__112basic_stringIcNSB_11char_traitsIcEENSB_9allocatorIcEEEEffffEUlvE0_NS1_18ExtraArgsForDefine4NoneEED2Ev, symObjAddr: 0x160E8, symBinAddr: 0x100019718, symSize: 0xB0 }
  - { offsetInCU: 0x13F124, offset: 0x13F124, size: 0x8, addend: 0x0, symName: __ZN4ROOT6Detail3RDF7RDefineIZ14AddEventWeightINS_3RDF10RInterfaceINS1_13RJittedFilterEvEEEDaRT_RKNSt3__112basic_stringIcNSB_11char_traitsIcEENSB_9allocatorIcEEEEffffEUlvE0_NS1_18ExtraArgsForDefine4NoneEE15GetVariedDefineESJ_.cold.1, symObjAddr: 0x1E454, symBinAddr: 0x1000225A4, symSize: 0x24 }
  - { offsetInCU: 0x13F411, offset: 0x13F411, size: 0x8, addend: 0x0, symName: __ZNSt3__120__shared_ptr_emplaceIyNS_9allocatorIyEEED1Ev, symObjAddr: 0x165E4, symBinAddr: 0x100019C14, symSize: 0x14 }
  - { offsetInCU: 0x13F433, offset: 0x13F433, size: 0x8, addend: 0x0, symName: __ZNSt3__120__shared_ptr_emplaceIyNS_9allocatorIyEEED1Ev, symObjAddr: 0x165E4, symBinAddr: 0x100019C14, symSize: 0x14 }
  - { offsetInCU: 0x13F46B, offset: 0x13F46B, size: 0x8, addend: 0x0, symName: __ZNSt3__120__shared_ptr_emplaceIyNS_9allocatorIyEEED0Ev, symObjAddr: 0x165F8, symBinAddr: 0x100019C28, symSize: 0x24 }
  - { offsetInCU: 0x13F4D1, offset: 0x13F4D1, size: 0x8, addend: 0x0, symName: __ZNSt3__120__shared_ptr_emplaceIyNS_9allocatorIyEEE16__on_zero_sharedEv, symObjAddr: 0x1661C, symBinAddr: 0x100019C4C, symSize: 0x4 }
  - { offsetInCU: 0x13F54E, offset: 0x13F54E, size: 0x8, addend: 0x0, symName: __ZNSt3__120__shared_ptr_emplaceIyNS_9allocatorIyEEE21__on_zero_shared_weakEv, symObjAddr: 0x16620, symBinAddr: 0x100019C50, symSize: 0x4 }
  - { offsetInCU: 0x13F581, offset: 0x13F581, size: 0x8, addend: 0x0, symName: __ZNSt3__120__shared_ptr_emplaceIyNS_9allocatorIyEEE21__on_zero_shared_weakEv, symObjAddr: 0x16620, symBinAddr: 0x100019C50, symSize: 0x4 }
  - { offsetInCU: 0x13F5A3, offset: 0x13F5A3, size: 0x8, addend: 0x0, symName: __ZNSt3__120__shared_ptr_emplaceIyNS_9allocatorIyEEE21__on_zero_shared_weakEv, symObjAddr: 0x16620, symBinAddr: 0x100019C50, symSize: 0x4 }
  - { offsetInCU: 0x13F5C5, offset: 0x13F5C5, size: 0x8, addend: 0x0, symName: __ZNSt3__120__shared_ptr_emplaceIyNS_9allocatorIyEEE21__on_zero_shared_weakEv, symObjAddr: 0x16620, symBinAddr: 0x100019C50, symSize: 0x4 }
  - { offsetInCU: 0x13F5F0, offset: 0x13F5F0, size: 0x8, addend: 0x0, symName: __ZNSt3__120__shared_ptr_emplaceIyNS_9allocatorIyEEE21__on_zero_shared_weakEv, symObjAddr: 0x16620, symBinAddr: 0x100019C50, symSize: 0x4 }
  - { offsetInCU: 0x13F616, offset: 0x13F616, size: 0x8, addend: 0x0, symName: __ZNSt3__120__shared_ptr_emplaceIyNS_9allocatorIyEEE21__on_zero_shared_weakEv, symObjAddr: 0x16620, symBinAddr: 0x100019C50, symSize: 0x4 }
  - { offsetInCU: 0x13F7BE, offset: 0x13F7BE, size: 0x8, addend: 0x0, symName: __ZN4ROOT8Internal3RDF7RActionINS1_11CountHelperENS_6Detail3RDF12RLoopManagerENS_10TypeTraits8TypeListIJEEEED1Ev, symObjAddr: 0x167A8, symBinAddr: 0x100019DD8, symSize: 0x4 }
  - { offsetInCU: 0x13F7E1, offset: 0x13F7E1, size: 0x8, addend: 0x0, symName: __ZN4ROOT8Internal3RDF7RActionINS1_11CountHelperENS_6Detail3RDF12RLoopManagerENS_10TypeTraits8TypeListIJEEEED1Ev, symObjAddr: 0x167A8, symBinAddr: 0x100019DD8, symSize: 0x4 }
  - { offsetInCU: 0x13F7F4, offset: 0x13F7F4, size: 0x8, addend: 0x0, symName: __ZN4ROOT8Internal3RDF7RActionINS1_11CountHelperENS_6Detail3RDF12RLoopManagerENS_10TypeTraits8TypeListIJEEEED2Ev, symObjAddr: 0x171B4, symBinAddr: 0x10001A7E4, symSize: 0xE0 }
  - { offsetInCU: 0x13FC0B, offset: 0x13FC0B, size: 0x8, addend: 0x0, symName: __ZN4ROOT8Internal3RDF7RActionINS1_11CountHelperENS_6Detail3RDF12RLoopManagerENS_10TypeTraits8TypeListIJEEEED0Ev, symObjAddr: 0x167AC, symBinAddr: 0x100019DDC, symSize: 0x14 }
  - { offsetInCU: 0x13FCA9, offset: 0x13FCA9, size: 0x8, addend: 0x0, symName: __ZN4ROOT8Internal3RDF7RActionINS1_11CountHelperENS_6Detail3RDF12RLoopManagerENS_10TypeTraits8TypeListIJEEEE3RunEjx, symObjAddr: 0x167C0, symBinAddr: 0x100019DF0, symSize: 0x40 }
  - { offsetInCU: 0x13FD15, offset: 0x13FD15, size: 0x8, addend: 0x0, symName: __ZN4ROOT8Internal3RDF7RActionINS1_11CountHelperENS_6Detail3RDF12RLoopManagerENS_10TypeTraits8TypeListIJEEEE10InitializeEv, symObjAddr: 0x16800, symBinAddr: 0x100019E30, symSize: 0x4 }
  - { offsetInCU: 0x13FD3A, offset: 0x13FD3A, size: 0x8, addend: 0x0, symName: __ZN4ROOT8Internal3RDF7RActionINS1_11CountHelperENS_6Detail3RDF12RLoopManagerENS_10TypeTraits8TypeListIJEEEE8InitSlotEP11TTreeReaderj, symObjAddr: 0x16804, symBinAddr: 0x100019E34, symSize: 0x60 }
  - { offsetInCU: 0x140090, offset: 0x140090, size: 0x8, addend: 0x0, symName: __ZN4ROOT8Internal3RDF7RActionINS1_11CountHelperENS_6Detail3RDF12RLoopManagerENS_10TypeTraits8TypeListIJEEEE20TriggerChildrenCountEv, symObjAddr: 0x16864, symBinAddr: 0x100019E94, symSize: 0x14 }
  - { offsetInCU: 0x1400D1, offset: 0x1400D1, size: 0x8, addend: 0x0, symName: __ZN4ROOT8Internal3RDF7RActionINS1_11CountHelperENS_6Detail3RDF12RLoopManagerENS_10TypeTraits8TypeListIJEEEE12FinalizeSlotEj, symObjAddr: 0x16878, symBinAddr: 0x100019EA8, symSize: 0x4 }
  - { offsetInCU: 0x140104, offset: 0x140104, size: 0x8, addend: 0x0, symName: __ZN4ROOT8Internal3RDF7RActionINS1_11CountHelperENS_6Detail3RDF12RLoopManagerENS_10TypeTraits8TypeListIJEEEE8FinalizeEv, symObjAddr: 0x1687C, symBinAddr: 0x100019EAC, symSize: 0x30 }
  - { offsetInCU: 0x14016E, offset: 0x14016E, size: 0x8, addend: 0x0, symName: __ZN4ROOT8Internal3RDF7RActionINS1_11CountHelperENS_6Detail3RDF12RLoopManagerENS_10TypeTraits8TypeListIJEEEE13PartialUpdateEj, symObjAddr: 0x168AC, symBinAddr: 0x100019EDC, symSize: 0x8 }
  - { offsetInCU: 0x1401C6, offset: 0x1401C6, size: 0x8, addend: 0x0, symName: __ZNK4ROOT8Internal3RDF11RActionBase6HasRunEv, symObjAddr: 0x168B4, symBinAddr: 0x100019EE4, symSize: 0x8 }
  - { offsetInCU: 0x1401E8, offset: 0x1401E8, size: 0x8, addend: 0x0, symName: __ZN4ROOT8Internal3RDF11RActionBase9SetHasRunEv, symObjAddr: 0x168BC, symBinAddr: 0x100019EEC, symSize: 0xC }
  - { offsetInCU: 0x14071A, offset: 0x14071A, size: 0x8, addend: 0x0, symName: __ZN4ROOT8Internal3RDF7RActionINS1_11CountHelperENS_6Detail3RDF12RLoopManagerENS_10TypeTraits8TypeListIJEEEE8GetGraphERNSt3__113unordered_mapIPvNSB_10shared_ptrINS1_12GraphDrawing9GraphNodeEEENSB_4hashISD_EENSB_8equal_toISD_EENSB_9allocatorINSB_4pairIKSD_SH_EEEEEE, symObjAddr: 0x168C8, symBinAddr: 0x100019EF8, symSize: 0x340 }
  - { offsetInCU: 0x141917, offset: 0x141917, size: 0x8, addend: 0x0, symName: __ZN4ROOT8Internal3RDF12GraphDrawing9GraphNodeC2ENSt3__117basic_string_viewIcNS4_11char_traitsIcEEEEjNS2_9ENodeTypeE, symObjAddr: 0x17338, symBinAddr: 0x10001A968, symSize: 0x1D0 }
  - { offsetInCU: 0x141F0B, offset: 0x141F0B, size: 0x8, addend: 0x0, symName: __ZNSt3__112__hash_tableINS_17__hash_value_typeIPvNS_10shared_ptrIN4ROOT8Internal3RDF12GraphDrawing9GraphNodeEEEEENS_22__unordered_map_hasherIS2_SA_NS_4hashIS2_EENS_8equal_toIS2_EELb1EEENS_21__unordered_map_equalIS2_SA_SF_SD_Lb1EEENS_9allocatorISA_EEE25__emplace_unique_key_argsIS2_JRKNS_21piecewise_construct_tENS_5tupleIJOS2_EEENSQ_IJEEEEEENS_4pairINS_15__hash_iteratorIPNS_11__hash_nodeISA_S2_EEEEbEERKT_DpOT0_, symObjAddr: 0x1760C, symBinAddr: 0x10001AC3C, symSize: 0x344 }
  - { offsetInCU: 0x14269A, offset: 0x14269A, size: 0x8, addend: 0x0, symName: __ZNSt3__16vectorINS_12basic_stringIcNS_11char_traitsIcEENS_9allocatorIcEEEENS4_IS6_EEE6assignIPS6_Li0EEEvT_SB_, symObjAddr: 0x17B70, symBinAddr: 0x10001B1A0, symSize: 0x28C }
  - { offsetInCU: 0x1433A7, offset: 0x1433A7, size: 0x8, addend: 0x0, symName: __ZNSt3__110shared_ptrIN4ROOT8Internal3RDF12GraphDrawing9GraphNodeEED1B7v160006Ev, symObjAddr: 0x17294, symBinAddr: 0x10001A8C4, symSize: 0x60 }
  - { offsetInCU: 0x143612, offset: 0x143612, size: 0x8, addend: 0x0, symName: __ZNK4ROOT8Internal3RDF7RActionINS1_11CountHelperENS_6Detail3RDF12RLoopManagerENS_10TypeTraits8TypeListIJEEEE17GetMergeableValueEv, symObjAddr: 0x16C08, symBinAddr: 0x10001A238, symSize: 0x40 }
  - { offsetInCU: 0x143805, offset: 0x143805, size: 0x8, addend: 0x0, symName: __ZN4ROOT8Internal3RDF7RActionINS1_11CountHelperENS_6Detail3RDF12RLoopManagerENS_10TypeTraits8TypeListIJEEEE17GetSampleCallbackEv, symObjAddr: 0x16C48, symBinAddr: 0x10001A278, symSize: 0x8 }
  - { offsetInCU: 0x14382C, offset: 0x14382C, size: 0x8, addend: 0x0, symName: __ZN4ROOT8Internal3RDF7RActionINS1_11CountHelperENS_6Detail3RDF12RLoopManagerENS_10TypeTraits8TypeListIJEEEE17GetSampleCallbackEv, symObjAddr: 0x16C48, symBinAddr: 0x10001A278, symSize: 0x8 }
  - { offsetInCU: 0x14384A, offset: 0x14384A, size: 0x8, addend: 0x0, symName: __ZN4ROOT8Internal3RDF7RActionINS1_11CountHelperENS_6Detail3RDF12RLoopManagerENS_10TypeTraits8TypeListIJEEEE17GetSampleCallbackEv, symObjAddr: 0x16C48, symBinAddr: 0x10001A278, symSize: 0x8 }
  - { offsetInCU: 0x143865, offset: 0x143865, size: 0x8, addend: 0x0, symName: __ZN4ROOT8Internal3RDF7RActionINS1_11CountHelperENS_6Detail3RDF12RLoopManagerENS_10TypeTraits8TypeListIJEEEE17GetSampleCallbackEv, symObjAddr: 0x16C48, symBinAddr: 0x10001A278, symSize: 0x8 }
  - { offsetInCU: 0x143881, offset: 0x143881, size: 0x8, addend: 0x0, symName: __ZN4ROOT8Internal3RDF7RActionINS1_11CountHelperENS_6Detail3RDF12RLoopManagerENS_10TypeTraits8TypeListIJEEEE17GetSampleCallbackEv, symObjAddr: 0x16C48, symBinAddr: 0x10001A278, symSize: 0x8 }
  - { offsetInCU: 0x14389D, offset: 0x14389D, size: 0x8, addend: 0x0, symName: __ZN4ROOT8Internal3RDF7RActionINS1_11CountHelperENS_6Detail3RDF12RLoopManagerENS_10TypeTraits8TypeListIJEEEE17GetSampleCallbackEv, symObjAddr: 0x16C48, symBinAddr: 0x10001A278, symSize: 0x8 }
  - { offsetInCU: 0x143D94, offset: 0x143D94, size: 0x8, addend: 0x0, symName: __ZN4ROOT8Internal3RDF7RActionINS1_11CountHelperENS_6Detail3RDF12RLoopManagerENS_10TypeTraits8TypeListIJEEEE16MakeVariedActionEONSt3__16vectorIPvNSB_9allocatorISD_EEEE, symObjAddr: 0x16C50, symBinAddr: 0x10001A280, symSize: 0x27C }
  - { offsetInCU: 0x1447A3, offset: 0x1447A3, size: 0x8, addend: 0x0, symName: __ZNSt3__16vectorIN4ROOT8Internal3RDF11CountHelperENS_9allocatorIS4_EEE7reserveEm, symObjAddr: 0x17DFC, symBinAddr: 0x10001B42C, symSize: 0x134 }
  - { offsetInCU: 0x144BED, offset: 0x144BED, size: 0x8, addend: 0x0, symName: __ZNSt3__16vectorIN4ROOT8Internal3RDF11CountHelperENS_9allocatorIS4_EEED1B7v160006Ev, symObjAddr: 0x17F30, symBinAddr: 0x10001B560, symSize: 0x70 }
  - { offsetInCU: 0x144BFF, offset: 0x144BFF, size: 0x8, addend: 0x0, symName: __ZNSt3__16vectorIN4ROOT8Internal3RDF11CountHelperENS_9allocatorIS4_EEE24__emplace_back_slow_pathIJS4_EEEvDpOT_, symObjAddr: 0x17FB4, symBinAddr: 0x10001B5E4, symSize: 0x1A4 }
  - { offsetInCU: 0x1451D1, offset: 0x1451D1, size: 0x8, addend: 0x0, symName: __ZN4ROOT8Internal3RDF13RVariedActionINS1_11CountHelperENS_6Detail3RDF12RLoopManagerENS_10TypeTraits8TypeListIJEEEEC2EONSt3__16vectorIS3_NSB_9allocatorIS3_EEEERKNSC_INSB_12basic_stringIcNSB_11char_traitsIcEENSD_IcEEEENSD_ISL_EEEENSB_10shared_ptrIS6_EERKNS1_15RColumnRegisterE, symObjAddr: 0x18158, symBinAddr: 0x10001B788, symSize: 0x160 }
  - { offsetInCU: 0x1451E7, offset: 0x1451E7, size: 0x8, addend: 0x0, symName: __ZN4ROOT8Internal3RDF13RVariedActionINS1_11CountHelperENS_6Detail3RDF12RLoopManagerENS_10TypeTraits8TypeListIJEEEEC2EONSt3__16vectorIS3_NSB_9allocatorIS3_EEEERKNSC_INSB_12basic_stringIcNSB_11char_traitsIcEENSD_IcEEEENSD_ISL_EEEENSB_10shared_ptrIS6_EERKNS1_15RColumnRegisterE, symObjAddr: 0x18158, symBinAddr: 0x10001B788, symSize: 0x160 }
  - { offsetInCU: 0x145530, offset: 0x145530, size: 0x8, addend: 0x0, symName: __ZN4ROOT8Internal3RDF7RActionINS1_11CountHelperENS_6Detail3RDF12RLoopManagerENS_10TypeTraits8TypeListIJEEEE16MakeVariedActionEONSt3__16vectorIPvNSB_9allocatorISD_EEEE.cold.1, symObjAddr: 0x1E478, symBinAddr: 0x1000225C8, symSize: 0x28 }
  - { offsetInCU: 0x145548, offset: 0x145548, size: 0x8, addend: 0x0, symName: __ZNSt3__16vectorIN4ROOT8Internal3RDF11CountHelperENS_9allocatorIS4_EEED1B7v160006Ev, symObjAddr: 0x17F30, symBinAddr: 0x10001B560, symSize: 0x70 }
  - { offsetInCU: 0x14581F, offset: 0x14581F, size: 0x8, addend: 0x0, symName: __ZN4ROOT8Internal3RDF7RActionINS1_11CountHelperENS_6Detail3RDF12RLoopManagerENS_10TypeTraits8TypeListIJEEEE11CloneActionEPv, symObjAddr: 0x16ECC, symBinAddr: 0x10001A4FC, symSize: 0x144 }
  - { offsetInCU: 0x145D32, offset: 0x145D32, size: 0x8, addend: 0x0, symName: __ZN4ROOT8Internal3RDF11CountHelperD0Ev, symObjAddr: 0x17010, symBinAddr: 0x10001A640, symSize: 0x80 }
  - { offsetInCU: 0x145F4D, offset: 0x145F4D, size: 0x8, addend: 0x0, symName: __ZNK4ROOT8Internal3RDF11CountHelper17GetMergeableValueEv, symObjAddr: 0x17090, symBinAddr: 0x10001A6C0, symSize: 0x40 }
  - { offsetInCU: 0x146098, offset: 0x146098, size: 0x8, addend: 0x0, symName: __ZN4ROOT6Detail3RDF11RActionImplINS_8Internal3RDF11CountHelperEE17GetSampleCallbackEv, symObjAddr: 0x170D0, symBinAddr: 0x10001A700, symSize: 0x8 }
  - { offsetInCU: 0x1460BA, offset: 0x1460BA, size: 0x8, addend: 0x0, symName: __ZN4ROOT6Detail3RDF11RActionImplINS_8Internal3RDF11CountHelperEE17GetSampleCallbackEv, symObjAddr: 0x170D0, symBinAddr: 0x10001A700, symSize: 0x8 }
  - { offsetInCU: 0x1460D5, offset: 0x1460D5, size: 0x8, addend: 0x0, symName: __ZN4ROOT6Detail3RDF11RActionImplINS_8Internal3RDF11CountHelperEE17GetSampleCallbackEv, symObjAddr: 0x170D0, symBinAddr: 0x10001A700, symSize: 0x8 }
  - { offsetInCU: 0x1460F1, offset: 0x1460F1, size: 0x8, addend: 0x0, symName: __ZN4ROOT6Detail3RDF11RActionImplINS_8Internal3RDF11CountHelperEE17GetSampleCallbackEv, symObjAddr: 0x170D0, symBinAddr: 0x10001A700, symSize: 0x8 }
  - { offsetInCU: 0x14610D, offset: 0x14610D, size: 0x8, addend: 0x0, symName: __ZN4ROOT6Detail3RDF11RActionImplINS_8Internal3RDF11CountHelperEE17GetSampleCallbackEv, symObjAddr: 0x170D0, symBinAddr: 0x10001A700, symSize: 0x8 }
  - { offsetInCU: 0x14612B, offset: 0x14612B, size: 0x8, addend: 0x0, symName: __ZN4ROOT6Detail3RDF15RMergeableCountD1Ev, symObjAddr: 0x170D8, symBinAddr: 0x10001A708, symSize: 0x4 }
  - { offsetInCU: 0x146156, offset: 0x146156, size: 0x8, addend: 0x0, symName: __ZN4ROOT6Detail3RDF15RMergeableCountD0Ev, symObjAddr: 0x170DC, symBinAddr: 0x10001A70C, symSize: 0x4 }
  - { offsetInCU: 0x1461D1, offset: 0x1461D1, size: 0x8, addend: 0x0, symName: __ZN4ROOT6Detail3RDF15RMergeableCount5MergeERKNS1_15RMergeableValueIyEE, symObjAddr: 0x170E0, symBinAddr: 0x10001A710, symSize: 0xD4 }
  - { offsetInCU: 0x14628B, offset: 0x14628B, size: 0x8, addend: 0x0, symName: __ZNSt3__120__shared_ptr_emplaceIN4ROOT8Internal3RDF12GraphDrawing9GraphNodeENS_9allocatorIS5_EEED1Ev, symObjAddr: 0x172F4, symBinAddr: 0x10001A924, symSize: 0x14 }
  - { offsetInCU: 0x1462AD, offset: 0x1462AD, size: 0x8, addend: 0x0, symName: __ZNSt3__120__shared_ptr_emplaceIN4ROOT8Internal3RDF12GraphDrawing9GraphNodeENS_9allocatorIS5_EEED1Ev, symObjAddr: 0x172F4, symBinAddr: 0x10001A924, symSize: 0x14 }
  - { offsetInCU: 0x1462E5, offset: 0x1462E5, size: 0x8, addend: 0x0, symName: __ZNSt3__120__shared_ptr_emplaceIN4ROOT8Internal3RDF12GraphDrawing9GraphNodeENS_9allocatorIS5_EEED0Ev, symObjAddr: 0x17308, symBinAddr: 0x10001A938, symSize: 0x24 }
  - { offsetInCU: 0x146367, offset: 0x146367, size: 0x8, addend: 0x0, symName: __ZNSt3__120__shared_ptr_emplaceIN4ROOT8Internal3RDF12GraphDrawing9GraphNodeENS_9allocatorIS5_EEE16__on_zero_sharedEv, symObjAddr: 0x1732C, symBinAddr: 0x10001A95C, symSize: 0x8 }
  - { offsetInCU: 0x146390, offset: 0x146390, size: 0x8, addend: 0x0, symName: __ZNSt3__120__shared_ptr_emplaceIN4ROOT8Internal3RDF12GraphDrawing9GraphNodeENS_9allocatorIS5_EEE16__on_zero_sharedEv, symObjAddr: 0x1732C, symBinAddr: 0x10001A95C, symSize: 0x8 }
  - { offsetInCU: 0x1463D6, offset: 0x1463D6, size: 0x8, addend: 0x0, symName: __ZN4ROOT8Internal3RDF12GraphDrawing9GraphNodeD2Ev, symObjAddr: 0x17508, symBinAddr: 0x10001AB38, symSize: 0x104 }
  - { offsetInCU: 0x146A46, offset: 0x146A46, size: 0x8, addend: 0x0, symName: __ZNSt3__120__shared_ptr_emplaceIN4ROOT8Internal3RDF12GraphDrawing9GraphNodeENS_9allocatorIS5_EEE21__on_zero_shared_weakEv, symObjAddr: 0x17334, symBinAddr: 0x10001A964, symSize: 0x4 }
  - { offsetInCU: 0x146A79, offset: 0x146A79, size: 0x8, addend: 0x0, symName: __ZNSt3__120__shared_ptr_emplaceIN4ROOT8Internal3RDF12GraphDrawing9GraphNodeENS_9allocatorIS5_EEE21__on_zero_shared_weakEv, symObjAddr: 0x17334, symBinAddr: 0x10001A964, symSize: 0x4 }
  - { offsetInCU: 0x146A9B, offset: 0x146A9B, size: 0x8, addend: 0x0, symName: __ZNSt3__120__shared_ptr_emplaceIN4ROOT8Internal3RDF12GraphDrawing9GraphNodeENS_9allocatorIS5_EEE21__on_zero_shared_weakEv, symObjAddr: 0x17334, symBinAddr: 0x10001A964, symSize: 0x4 }
  - { offsetInCU: 0x146ABD, offset: 0x146ABD, size: 0x8, addend: 0x0, symName: __ZNSt3__120__shared_ptr_emplaceIN4ROOT8Internal3RDF12GraphDrawing9GraphNodeENS_9allocatorIS5_EEE21__on_zero_shared_weakEv, symObjAddr: 0x17334, symBinAddr: 0x10001A964, symSize: 0x4 }
  - { offsetInCU: 0x146AEA, offset: 0x146AEA, size: 0x8, addend: 0x0, symName: __ZNSt3__120__shared_ptr_emplaceIN4ROOT8Internal3RDF12GraphDrawing9GraphNodeENS_9allocatorIS5_EEE21__on_zero_shared_weakEv, symObjAddr: 0x17334, symBinAddr: 0x10001A964, symSize: 0x4 }
  - { offsetInCU: 0x146B12, offset: 0x146B12, size: 0x8, addend: 0x0, symName: __ZNSt3__120__shared_ptr_emplaceIN4ROOT8Internal3RDF12GraphDrawing9GraphNodeENS_9allocatorIS5_EEE21__on_zero_shared_weakEv, symObjAddr: 0x17334, symBinAddr: 0x10001A964, symSize: 0x4 }
  - { offsetInCU: 0x146C03, offset: 0x146C03, size: 0x8, addend: 0x0, symName: __ZN4ROOT8Internal3RDF12GraphDrawing9GraphNodeC2ENSt3__117basic_string_viewIcNS4_11char_traitsIcEEEEjNS2_9ENodeTypeE.cold.1, symObjAddr: 0x1E4A0, symBinAddr: 0x1000225F0, symSize: 0x48 }
  - { offsetInCU: 0x147380, offset: 0x147380, size: 0x8, addend: 0x0, symName: __ZNSt3__112__hash_tableINS_17__hash_value_typeIPvNS_10shared_ptrIN4ROOT8Internal3RDF12GraphDrawing9GraphNodeEEEEENS_22__unordered_map_hasherIS2_SA_NS_4hashIS2_EENS_8equal_toIS2_EELb1EEENS_21__unordered_map_equalIS2_SA_SF_SD_Lb1EEENS_9allocatorISA_EEE11__do_rehashILb1EEEvm, symObjAddr: 0x179C4, symBinAddr: 0x10001AFF4, symSize: 0x1AC }
  - { offsetInCU: 0x1477D0, offset: 0x1477D0, size: 0x8, addend: 0x0, symName: __ZNSt3__16vectorINS_12basic_stringIcNS_11char_traitsIcEENS_9allocatorIcEEEENS4_IS6_EEE6assignIPS6_Li0EEEvT_SB_, symObjAddr: 0x17B70, symBinAddr: 0x10001B1A0, symSize: 0x28C }
  - { offsetInCU: 0x1477E5, offset: 0x1477E5, size: 0x8, addend: 0x0, symName: __ZNSt3__110unique_ptrINS_11__hash_nodeINS_17__hash_value_typeIPvNS_10shared_ptrIN4ROOT8Internal3RDF12GraphDrawing9GraphNodeEEEEES3_EENS_22__hash_node_destructorINS_9allocatorISC_EEEEED1B7v160006Ev, symObjAddr: 0x17950, symBinAddr: 0x10001AF80, symSize: 0x74 }
  - { offsetInCU: 0x147F76, offset: 0x147F76, size: 0x8, addend: 0x0, symName: __ZNKSt3__16vectorIN4ROOT8Internal3RDF11CountHelperENS_9allocatorIS4_EEE20__throw_length_errorB7v160006Ev, symObjAddr: 0x17FA0, symBinAddr: 0x10001B5D0, symSize: 0x14 }
  - { offsetInCU: 0x147F9F, offset: 0x147F9F, size: 0x8, addend: 0x0, symName: __ZNSt3__16vectorIN4ROOT8Internal3RDF11CountHelperENS_9allocatorIS4_EEE24__emplace_back_slow_pathIJS4_EEEvDpOT_, symObjAddr: 0x17FB4, symBinAddr: 0x10001B5E4, symSize: 0x1A4 }
  - { offsetInCU: 0x148084, offset: 0x148084, size: 0x8, addend: 0x0, symName: __ZNK4ROOT8Internal3RDF13RVariedActionINS1_11CountHelperENS_6Detail3RDF12RLoopManagerENS_10TypeTraits8TypeListIJEEEE15MakePrevFiltersENSt3__110shared_ptrIS6_EE, symObjAddr: 0x182B8, symBinAddr: 0x10001B8E8, symSize: 0x290 }
  - { offsetInCU: 0x1488E3, offset: 0x1488E3, size: 0x8, addend: 0x0, symName: __ZNSt3__16vectorINS0_INS_5arrayIPN4ROOT6Detail3RDF17RColumnReaderBaseELm0EEENS_9allocatorIS7_EEEENS8_ISA_EEEC1Em, symObjAddr: 0x18548, symBinAddr: 0x10001BB78, symSize: 0xCC }
  - { offsetInCU: 0x148B4A, offset: 0x148B4A, size: 0x8, addend: 0x0, symName: __ZNSt3__16vectorINS0_INS_5arrayIPN4ROOT6Detail3RDF17RColumnReaderBaseELm0EEENS_9allocatorIS7_EEEENS8_ISA_EEED1B7v160006Ev, symObjAddr: 0x18614, symBinAddr: 0x10001BC44, symSize: 0x74 }
  - { offsetInCU: 0x148E0B, offset: 0x148E0B, size: 0x8, addend: 0x0, symName: __ZNSt3__16vectorINS_10shared_ptrIN4ROOT6Detail3RDF12RLoopManagerEEENS_9allocatorIS6_EEED1B7v160006Ev, symObjAddr: 0x18688, symBinAddr: 0x10001BCB8, symSize: 0x98 }
  - { offsetInCU: 0x14944A, offset: 0x14944A, size: 0x8, addend: 0x0, symName: __ZNSt3__16vectorINS_10shared_ptrIN4ROOT6Detail3RDF12RLoopManagerEEENS_9allocatorIS6_EEE7reserveEm, symObjAddr: 0x194E8, symBinAddr: 0x10001CB18, symSize: 0x108 }
  - { offsetInCU: 0x149893, offset: 0x149893, size: 0x8, addend: 0x0, symName: __ZNKSt3__16vectorINS_10shared_ptrIN4ROOT6Detail3RDF12RLoopManagerEEENS_9allocatorIS6_EEE20__throw_length_errorB7v160006Ev, symObjAddr: 0x195F0, symBinAddr: 0x10001CC20, symSize: 0x14 }
  - { offsetInCU: 0x1498A5, offset: 0x1498A5, size: 0x8, addend: 0x0, symName: __ZNSt3__16vectorINS_10shared_ptrIN4ROOT6Detail3RDF12RLoopManagerEEENS_9allocatorIS6_EEE24__emplace_back_slow_pathIJRS6_EEEvDpOT_, symObjAddr: 0x19928, symBinAddr: 0x10001CF58, symSize: 0x170 }
  - { offsetInCU: 0x149E53, offset: 0x149E53, size: 0x8, addend: 0x0, symName: __ZNKSt3__16vectorINS0_INS_5arrayIPN4ROOT6Detail3RDF17RColumnReaderBaseELm0EEENS_9allocatorIS7_EEEENS8_ISA_EEE20__throw_length_errorB7v160006Ev, symObjAddr: 0x19A98, symBinAddr: 0x10001D0C8, symSize: 0x14 }
  - { offsetInCU: 0x149E69, offset: 0x149E69, size: 0x8, addend: 0x0, symName: __ZNSt3__16vectorINS_10shared_ptrIN4ROOT6Detail3RDF12RLoopManagerEEENS_9allocatorIS6_EEE24__emplace_back_slow_pathIJS6_EEEvDpOT_, symObjAddr: 0x197D0, symBinAddr: 0x10001CE00, symSize: 0x158 }
  - { offsetInCU: 0x14A3B5, offset: 0x14A3B5, size: 0x8, addend: 0x0, symName: __ZNSt3__16vectorINS_10shared_ptrIN4ROOT6Detail3RDF12RLoopManagerEEENS_9allocatorIS6_EEE24__emplace_back_slow_pathIJRS6_EEEvDpOT_, symObjAddr: 0x19928, symBinAddr: 0x10001CF58, symSize: 0x170 }
  - { offsetInCU: 0x14A3CB, offset: 0x14A3CB, size: 0x8, addend: 0x0, symName: __ZNSt3__16vectorINS_10shared_ptrIN4ROOT6Detail3RDF12RLoopManagerEEENS_9allocatorIS6_EEE8__appendEmRKS6_, symObjAddr: 0x19604, symBinAddr: 0x10001CC34, symSize: 0x1CC }
  - { offsetInCU: 0x14AB67, offset: 0x14AB67, size: 0x8, addend: 0x0, symName: __ZNSt3__16vectorINS_10shared_ptrIN4ROOT6Detail3RDF12RLoopManagerEEENS_9allocatorIS6_EEE24__emplace_back_slow_pathIJS6_EEEvDpOT_, symObjAddr: 0x197D0, symBinAddr: 0x10001CE00, symSize: 0x158 }
  - { offsetInCU: 0x14ADA6, offset: 0x14ADA6, size: 0x8, addend: 0x0, symName: __ZNKSt3__16vectorINS0_INS_5arrayIPN4ROOT6Detail3RDF17RColumnReaderBaseELm0EEENS_9allocatorIS7_EEEENS8_ISA_EEE20__throw_length_errorB7v160006Ev, symObjAddr: 0x19A98, symBinAddr: 0x10001D0C8, symSize: 0x14 }
  - { offsetInCU: 0x14ADCF, offset: 0x14ADCF, size: 0x8, addend: 0x0, symName: __ZN4ROOT8Internal3RDF13RVariedActionINS1_11CountHelperENS_6Detail3RDF12RLoopManagerENS_10TypeTraits8TypeListIJEEEED2Ev, symObjAddr: 0x19AAC, symBinAddr: 0x10001D0DC, symSize: 0x13C }
  - { offsetInCU: 0x14ADDA, offset: 0x14ADDA, size: 0x8, addend: 0x0, symName: __ZNSt3__16vectorINS0_INS_5arrayIPN4ROOT6Detail3RDF17RColumnReaderBaseELm0EEENS_9allocatorIS7_EEEENS8_ISA_EEEC1Em.cold.1, symObjAddr: 0x1E4E8, symBinAddr: 0x100022638, symSize: 0x4C }
  - { offsetInCU: 0x14B236, offset: 0x14B236, size: 0x8, addend: 0x0, symName: __ZN4ROOT8Internal3RDF13RVariedActionINS1_11CountHelperENS_6Detail3RDF12RLoopManagerENS_10TypeTraits8TypeListIJEEEED1Ev, symObjAddr: 0x18720, symBinAddr: 0x10001BD50, symSize: 0x4 }
  - { offsetInCU: 0x14B259, offset: 0x14B259, size: 0x8, addend: 0x0, symName: __ZN4ROOT8Internal3RDF13RVariedActionINS1_11CountHelperENS_6Detail3RDF12RLoopManagerENS_10TypeTraits8TypeListIJEEEED1Ev, symObjAddr: 0x18720, symBinAddr: 0x10001BD50, symSize: 0x4 }
  - { offsetInCU: 0x14B26C, offset: 0x14B26C, size: 0x8, addend: 0x0, symName: __ZN4ROOT8Internal3RDF13RVariedActionINS1_11CountHelperENS_6Detail3RDF12RLoopManagerENS_10TypeTraits8TypeListIJEEEED2Ev, symObjAddr: 0x19AAC, symBinAddr: 0x10001D0DC, symSize: 0x13C }
  - { offsetInCU: 0x14B914, offset: 0x14B914, size: 0x8, addend: 0x0, symName: __ZN4ROOT8Internal3RDF13RVariedActionINS1_11CountHelperENS_6Detail3RDF12RLoopManagerENS_10TypeTraits8TypeListIJEEEED0Ev, symObjAddr: 0x18724, symBinAddr: 0x10001BD54, symSize: 0x14 }
  - { offsetInCU: 0x14BA05, offset: 0x14BA05, size: 0x8, addend: 0x0, symName: __ZN4ROOT8Internal3RDF13RVariedActionINS1_11CountHelperENS_6Detail3RDF12RLoopManagerENS_10TypeTraits8TypeListIJEEEE3RunEjx, symObjAddr: 0x18738, symBinAddr: 0x10001BD68, symSize: 0xA0 }
  - { offsetInCU: 0x14BB11, offset: 0x14BB11, size: 0x8, addend: 0x0, symName: __ZN4ROOT8Internal3RDF13RVariedActionINS1_11CountHelperENS_6Detail3RDF12RLoopManagerENS_10TypeTraits8TypeListIJEEEE10InitializeEv, symObjAddr: 0x187D8, symBinAddr: 0x10001BE08, symSize: 0x4 }
  - { offsetInCU: 0x14BE72, offset: 0x14BE72, size: 0x8, addend: 0x0, symName: __ZN4ROOT8Internal3RDF13RVariedActionINS1_11CountHelperENS_6Detail3RDF12RLoopManagerENS_10TypeTraits8TypeListIJEEEE8InitSlotEP11TTreeReaderj, symObjAddr: 0x187DC, symBinAddr: 0x10001BE0C, symSize: 0x208 }
  - { offsetInCU: 0x14C340, offset: 0x14C340, size: 0x8, addend: 0x0, symName: __ZN4ROOT8Internal3RDF13RVariedActionINS1_11CountHelperENS_6Detail3RDF12RLoopManagerENS_10TypeTraits8TypeListIJEEEE20TriggerChildrenCountEv, symObjAddr: 0x189E4, symBinAddr: 0x10001C014, symSize: 0x28 }
  - { offsetInCU: 0x14C363, offset: 0x14C363, size: 0x8, addend: 0x0, symName: __ZN4ROOT8Internal3RDF13RVariedActionINS1_11CountHelperENS_6Detail3RDF12RLoopManagerENS_10TypeTraits8TypeListIJEEEE20TriggerChildrenCountEv, symObjAddr: 0x189E4, symBinAddr: 0x10001C014, symSize: 0x28 }
  - { offsetInCU: 0x14C3AD, offset: 0x14C3AD, size: 0x8, addend: 0x0, symName: __ZN4ROOT8Internal3RDF13RVariedActionINS1_11CountHelperENS_6Detail3RDF12RLoopManagerENS_10TypeTraits8TypeListIJEEEE20TriggerChildrenCountEv, symObjAddr: 0x189E4, symBinAddr: 0x10001C014, symSize: 0x28 }
  - { offsetInCU: 0x14C4A8, offset: 0x14C4A8, size: 0x8, addend: 0x0, symName: __ZN4ROOT8Internal3RDF13RVariedActionINS1_11CountHelperENS_6Detail3RDF12RLoopManagerENS_10TypeTraits8TypeListIJEEEE12FinalizeSlotEj, symObjAddr: 0x18A0C, symBinAddr: 0x10001C03C, symSize: 0x18 }
  - { offsetInCU: 0x14C4DD, offset: 0x14C4DD, size: 0x8, addend: 0x0, symName: __ZN4ROOT8Internal3RDF13RVariedActionINS1_11CountHelperENS_6Detail3RDF12RLoopManagerENS_10TypeTraits8TypeListIJEEEE12FinalizeSlotEj, symObjAddr: 0x18A0C, symBinAddr: 0x10001C03C, symSize: 0x18 }
  - { offsetInCU: 0x14C592, offset: 0x14C592, size: 0x8, addend: 0x0, symName: __ZN4ROOT8Internal3RDF13RVariedActionINS1_11CountHelperENS_6Detail3RDF12RLoopManagerENS_10TypeTraits8TypeListIJEEEE8FinalizeEv, symObjAddr: 0x18A24, symBinAddr: 0x10001C054, symSize: 0x4C }
  - { offsetInCU: 0x14C6F8, offset: 0x14C6F8, size: 0x8, addend: 0x0, symName: __ZN4ROOT8Internal3RDF13RVariedActionINS1_11CountHelperENS_6Detail3RDF12RLoopManagerENS_10TypeTraits8TypeListIJEEEE13PartialUpdateEj, symObjAddr: 0x18A70, symBinAddr: 0x10001C0A0, symSize: 0x8 }
  - { offsetInCU: 0x14C72F, offset: 0x14C72F, size: 0x8, addend: 0x0, symName: __ZN4ROOT8Internal3RDF13RVariedActionINS1_11CountHelperENS_6Detail3RDF12RLoopManagerENS_10TypeTraits8TypeListIJEEEE13PartialUpdateEj, symObjAddr: 0x18A70, symBinAddr: 0x10001C0A0, symSize: 0x8 }
  - { offsetInCU: 0x14C753, offset: 0x14C753, size: 0x8, addend: 0x0, symName: __ZN4ROOT8Internal3RDF13RVariedActionINS1_11CountHelperENS_6Detail3RDF12RLoopManagerENS_10TypeTraits8TypeListIJEEEE13PartialUpdateEj, symObjAddr: 0x18A70, symBinAddr: 0x10001C0A0, symSize: 0x8 }
  - { offsetInCU: 0x14C78E, offset: 0x14C78E, size: 0x8, addend: 0x0, symName: __ZN4ROOT8Internal3RDF13RVariedActionINS1_11CountHelperENS_6Detail3RDF12RLoopManagerENS_10TypeTraits8TypeListIJEEEE8GetGraphERNSt3__113unordered_mapIPvNSB_10shared_ptrINS1_12GraphDrawing9GraphNodeEEENSB_4hashISD_EENSB_8equal_toISD_EENSB_9allocatorINSB_4pairIKSD_SH_EEEEEE, symObjAddr: 0x18A78, symBinAddr: 0x10001C0A8, symSize: 0x3D4 }
  - { offsetInCU: 0x14E280, offset: 0x14E280, size: 0x8, addend: 0x0, symName: __ZNK4ROOT8Internal3RDF13RVariedActionINS1_11CountHelperENS_6Detail3RDF12RLoopManagerENS_10TypeTraits8TypeListIJEEEE17GetMergeableValueEv, symObjAddr: 0x18E4C, symBinAddr: 0x10001C47C, symSize: 0x170 }
  - { offsetInCU: 0x14EA2A, offset: 0x14EA2A, size: 0x8, addend: 0x0, symName: __ZNSt3__16vectorINS_10unique_ptrIN4ROOT6Detail3RDF19RMergeableValueBaseENS_14default_deleteIS5_EEEENS_9allocatorIS8_EEE7reserveEm, symObjAddr: 0x19BE8, symBinAddr: 0x10001D218, symSize: 0xE8 }
  - { offsetInCU: 0x14EEEC, offset: 0x14EEEC, size: 0x8, addend: 0x0, symName: __ZNSt3__16vectorINS_10unique_ptrIN4ROOT6Detail3RDF19RMergeableValueBaseENS_14default_deleteIS5_EEEENS_9allocatorIS8_EEED1B7v160006Ev, symObjAddr: 0x19CD0, symBinAddr: 0x10001D300, symSize: 0x74 }
  - { offsetInCU: 0x14EEFE, offset: 0x14EEFE, size: 0x8, addend: 0x0, symName: __ZNSt3__16vectorINS_10unique_ptrIN4ROOT6Detail3RDF19RMergeableValueBaseENS_14default_deleteIS5_EEEENS_9allocatorIS8_EEE24__emplace_back_slow_pathIJS8_EEEvDpOT_, symObjAddr: 0x19D58, symBinAddr: 0x10001D388, symSize: 0x128 }
  - { offsetInCU: 0x14F53C, offset: 0x14F53C, size: 0x8, addend: 0x0, symName: __ZN4ROOT6Detail3RDF24RMergeableVariationsBaseD1Ev, symObjAddr: 0x19E80, symBinAddr: 0x10001D4B0, symSize: 0xD0 }
  - { offsetInCU: 0x14F552, offset: 0x14F552, size: 0x8, addend: 0x0, symName: __ZNSt3__16vectorINS_10unique_ptrIN4ROOT6Detail3RDF19RMergeableValueBaseENS_14default_deleteIS5_EEEENS_9allocatorIS8_EEED1B7v160006Ev, symObjAddr: 0x19CD0, symBinAddr: 0x10001D300, symSize: 0x74 }
  - { offsetInCU: 0x14FECE, offset: 0x14FECE, size: 0x8, addend: 0x0, symName: __ZNSt3__16vectorINS_8functionIFvjRKN4ROOT3RDF11RSampleInfoEEEENS_9allocatorIS8_EEE21__push_back_slow_pathIS8_EEvOT_, symObjAddr: 0x1A138, symBinAddr: 0x10001D768, symSize: 0x20C }
  - { offsetInCU: 0x150462, offset: 0x150462, size: 0x8, addend: 0x0, symName: __ZZN4ROOT8Internal3RDF13RVariedActionINS1_11CountHelperENS_6Detail3RDF12RLoopManagerENS_10TypeTraits8TypeListIJEEEE17GetSampleCallbackEvENUljRKNS_3RDF11RSampleInfoEE_D1Ev, symObjAddr: 0x1A020, symBinAddr: 0x10001D650, symSize: 0x8C }
  - { offsetInCU: 0x15067F, offset: 0x15067F, size: 0x8, addend: 0x0, symName: __ZNSt3__16vectorINS_8functionIFvjRKN4ROOT3RDF11RSampleInfoEEEENS_9allocatorIS8_EEED1B7v160006Ev, symObjAddr: 0x1A0AC, symBinAddr: 0x10001D6DC, symSize: 0x8C }
  - { offsetInCU: 0x150864, offset: 0x150864, size: 0x8, addend: 0x0, symName: __ZN4ROOT8Internal3RDF13RVariedActionINS1_11CountHelperENS_6Detail3RDF12RLoopManagerENS_10TypeTraits8TypeListIJEEEE16MakeVariedActionEONSt3__16vectorIPvNSB_9allocatorISD_EEEE, symObjAddr: 0x19230, symBinAddr: 0x10001C860, symSize: 0x50 }
  - { offsetInCU: 0x150A37, offset: 0x150A37, size: 0x8, addend: 0x0, symName: __ZN4ROOT8Internal3RDF13RVariedActionINS1_11CountHelperENS_6Detail3RDF12RLoopManagerENS_10TypeTraits8TypeListIJEEEE11CloneActionEPv, symObjAddr: 0x19280, symBinAddr: 0x10001C8B0, symSize: 0x268 }
  - { offsetInCU: 0x151295, offset: 0x151295, size: 0x8, addend: 0x0, symName: __ZN4ROOT8Internal3RDF13RVariedActionINS1_11CountHelperENS_6Detail3RDF12RLoopManagerENS_10TypeTraits8TypeListIJEEEEC2EONSt3__16vectorIS3_NSB_9allocatorIS3_EEEERKNSC_INSB_12basic_stringIcNSB_11char_traitsIcEENSD_IcEEEENSD_ISL_EEEERKNSC_INSB_10shared_ptrIS6_EENSD_ISR_EEEERKNS1_15RColumnRegisterE, symObjAddr: 0x1A9D8, symBinAddr: 0x10001E008, symSize: 0x108 }
  - { offsetInCU: 0x1514A6, offset: 0x1514A6, size: 0x8, addend: 0x0, symName: __ZN4ROOT8Internal3RDF13RVariedActionINS1_11CountHelperENS_6Detail3RDF12RLoopManagerENS_10TypeTraits8TypeListIJEEEE11CloneActionEPv.cold.1, symObjAddr: 0x1E534, symBinAddr: 0x100022684, symSize: 0x28 }
  - { offsetInCU: 0x151641, offset: 0x151641, size: 0x8, addend: 0x0, symName: __ZNKSt3__16vectorINS_10shared_ptrIN4ROOT6Detail3RDF12RLoopManagerEEENS_9allocatorIS6_EEE20__throw_length_errorB7v160006Ev, symObjAddr: 0x195F0, symBinAddr: 0x10001CC20, symSize: 0x14 }
  - { offsetInCU: 0x15166A, offset: 0x15166A, size: 0x8, addend: 0x0, symName: __ZNSt3__16vectorINS_10shared_ptrIN4ROOT6Detail3RDF12RLoopManagerEEENS_9allocatorIS6_EEE8__appendEmRKS6_, symObjAddr: 0x19604, symBinAddr: 0x10001CC34, symSize: 0x1CC }
  - { offsetInCU: 0x151AB1, offset: 0x151AB1, size: 0x8, addend: 0x0, symName: __ZNKSt3__16vectorINS_10unique_ptrIN4ROOT6Detail3RDF19RMergeableValueBaseENS_14default_deleteIS5_EEEENS_9allocatorIS8_EEE20__throw_length_errorB7v160006Ev, symObjAddr: 0x19D44, symBinAddr: 0x10001D374, symSize: 0x14 }
  - { offsetInCU: 0x151ADA, offset: 0x151ADA, size: 0x8, addend: 0x0, symName: __ZNSt3__16vectorINS_10unique_ptrIN4ROOT6Detail3RDF19RMergeableValueBaseENS_14default_deleteIS5_EEEENS_9allocatorIS8_EEE24__emplace_back_slow_pathIJS8_EEEvDpOT_, symObjAddr: 0x19D58, symBinAddr: 0x10001D388, symSize: 0x128 }
  - { offsetInCU: 0x151BD8, offset: 0x151BD8, size: 0x8, addend: 0x0, symName: __ZN4ROOT6Detail3RDF24RMergeableVariationsBaseD1Ev, symObjAddr: 0x19E80, symBinAddr: 0x10001D4B0, symSize: 0xD0 }
  - { offsetInCU: 0x152109, offset: 0x152109, size: 0x8, addend: 0x0, symName: __ZN4ROOT6Detail3RDF24RMergeableVariationsBaseD0Ev, symObjAddr: 0x19F50, symBinAddr: 0x10001D580, symSize: 0xD0 }
  - { offsetInCU: 0x1529A8, offset: 0x1529A8, size: 0x8, addend: 0x0, symName: __ZNKSt3__16vectorINS_8functionIFvjRKN4ROOT3RDF11RSampleInfoEEEENS_9allocatorIS8_EEE20__throw_length_errorB7v160006Ev, symObjAddr: 0x1A344, symBinAddr: 0x10001D974, symSize: 0x14 }
  - { offsetInCU: 0x1529D1, offset: 0x1529D1, size: 0x8, addend: 0x0, symName: __ZNSt3__110__function6__funcIZN4ROOT8Internal3RDF13RVariedActionINS4_11CountHelperENS2_6Detail3RDF12RLoopManagerENS2_10TypeTraits8TypeListIJEEEE17GetSampleCallbackEvEUljRKNS2_3RDF11RSampleInfoEE_NS_9allocatorISI_EEFvjSH_EED1Ev, symObjAddr: 0x1A358, symBinAddr: 0x10001D988, symSize: 0x9C }
  - { offsetInCU: 0x152AA1, offset: 0x152AA1, size: 0x8, addend: 0x0, symName: __ZNSt3__110__function6__funcIZN4ROOT8Internal3RDF13RVariedActionINS4_11CountHelperENS2_6Detail3RDF12RLoopManagerENS2_10TypeTraits8TypeListIJEEEE17GetSampleCallbackEvEUljRKNS2_3RDF11RSampleInfoEE_NS_9allocatorISI_EEFvjSH_EED1Ev, symObjAddr: 0x1A358, symBinAddr: 0x10001D988, symSize: 0x9C }
  - { offsetInCU: 0x152DB3, offset: 0x152DB3, size: 0x8, addend: 0x0, symName: __ZNSt3__110__function6__funcIZN4ROOT8Internal3RDF13RVariedActionINS4_11CountHelperENS2_6Detail3RDF12RLoopManagerENS2_10TypeTraits8TypeListIJEEEE17GetSampleCallbackEvEUljRKNS2_3RDF11RSampleInfoEE_NS_9allocatorISI_EEFvjSH_EED0Ev, symObjAddr: 0x1A3F4, symBinAddr: 0x10001DA24, symSize: 0x9C }
  - { offsetInCU: 0x153404, offset: 0x153404, size: 0x8, addend: 0x0, symName: __ZNKSt3__110__function6__funcIZN4ROOT8Internal3RDF13RVariedActionINS4_11CountHelperENS2_6Detail3RDF12RLoopManagerENS2_10TypeTraits8TypeListIJEEEE17GetSampleCallbackEvEUljRKNS2_3RDF11RSampleInfoEE_NS_9allocatorISI_EEFvjSH_EE7__cloneEv, symObjAddr: 0x1A490, symBinAddr: 0x10001DAC0, symSize: 0x58 }
  - { offsetInCU: 0x153726, offset: 0x153726, size: 0x8, addend: 0x0, symName: __ZNSt3__16vectorINS_8functionIFvjRKN4ROOT3RDF11RSampleInfoEEEENS_9allocatorIS8_EEEC2ERKSB_, symObjAddr: 0x1A724, symBinAddr: 0x10001DD54, symSize: 0x138 }
  - { offsetInCU: 0x153C49, offset: 0x153C49, size: 0x8, addend: 0x0, symName: __ZNKSt3__110__function6__funcIZN4ROOT8Internal3RDF13RVariedActionINS4_11CountHelperENS2_6Detail3RDF12RLoopManagerENS2_10TypeTraits8TypeListIJEEEE17GetSampleCallbackEvEUljRKNS2_3RDF11RSampleInfoEE_NS_9allocatorISI_EEFvjSH_EE7__cloneEPNS0_6__baseISL_EE, symObjAddr: 0x1A4E8, symBinAddr: 0x10001DB18, symSize: 0x20 }
  - { offsetInCU: 0x153E2D, offset: 0x153E2D, size: 0x8, addend: 0x0, symName: __ZNSt3__110__function6__funcIZN4ROOT8Internal3RDF13RVariedActionINS4_11CountHelperENS2_6Detail3RDF12RLoopManagerENS2_10TypeTraits8TypeListIJEEEE17GetSampleCallbackEvEUljRKNS2_3RDF11RSampleInfoEE_NS_9allocatorISI_EEFvjSH_EE7destroyEv, symObjAddr: 0x1A508, symBinAddr: 0x10001DB38, symSize: 0xA4 }
  - { offsetInCU: 0x15408B, offset: 0x15408B, size: 0x8, addend: 0x0, symName: __ZNSt3__110__function6__funcIZN4ROOT8Internal3RDF13RVariedActionINS4_11CountHelperENS2_6Detail3RDF12RLoopManagerENS2_10TypeTraits8TypeListIJEEEE17GetSampleCallbackEvEUljRKNS2_3RDF11RSampleInfoEE_NS_9allocatorISI_EEFvjSH_EE18destroy_deallocateEv, symObjAddr: 0x1A5AC, symBinAddr: 0x10001DBDC, symSize: 0x8C }
  - { offsetInCU: 0x154573, offset: 0x154573, size: 0x8, addend: 0x0, symName: __ZNSt3__110__function6__funcIZN4ROOT8Internal3RDF13RVariedActionINS4_11CountHelperENS2_6Detail3RDF12RLoopManagerENS2_10TypeTraits8TypeListIJEEEE17GetSampleCallbackEvEUljRKNS2_3RDF11RSampleInfoEE_NS_9allocatorISI_EEFvjSH_EEclEOjSH_, symObjAddr: 0x1A638, symBinAddr: 0x10001DC68, symSize: 0x6C }
  - { offsetInCU: 0x15470D, offset: 0x15470D, size: 0x8, addend: 0x0, symName: __ZNKSt3__110__function6__funcIZN4ROOT8Internal3RDF13RVariedActionINS4_11CountHelperENS2_6Detail3RDF12RLoopManagerENS2_10TypeTraits8TypeListIJEEEE17GetSampleCallbackEvEUljRKNS2_3RDF11RSampleInfoEE_NS_9allocatorISI_EEFvjSH_EE6targetERKSt9type_info, symObjAddr: 0x1A6A4, symBinAddr: 0x10001DCD4, symSize: 0x74 }
  - { offsetInCU: 0x15476D, offset: 0x15476D, size: 0x8, addend: 0x0, symName: __ZNKSt3__110__function6__funcIZN4ROOT8Internal3RDF13RVariedActionINS4_11CountHelperENS2_6Detail3RDF12RLoopManagerENS2_10TypeTraits8TypeListIJEEEE17GetSampleCallbackEvEUljRKNS2_3RDF11RSampleInfoEE_NS_9allocatorISI_EEFvjSH_EE6targetERKSt9type_info, symObjAddr: 0x1A6A4, symBinAddr: 0x10001DCD4, symSize: 0x74 }
  - { offsetInCU: 0x1547F2, offset: 0x1547F2, size: 0x8, addend: 0x0, symName: __ZNKSt3__110__function6__funcIZN4ROOT8Internal3RDF13RVariedActionINS4_11CountHelperENS2_6Detail3RDF12RLoopManagerENS2_10TypeTraits8TypeListIJEEEE17GetSampleCallbackEvEUljRKNS2_3RDF11RSampleInfoEE_NS_9allocatorISI_EEFvjSH_EE11target_typeEv, symObjAddr: 0x1A718, symBinAddr: 0x10001DD48, symSize: 0xC }
  - { offsetInCU: 0x154A5F, offset: 0x154A5F, size: 0x8, addend: 0x0, symName: __ZNSt3__128__exception_guard_exceptionsINS_29_AllocatorDestroyRangeReverseINS_9allocatorINS_8functionIFvjRKN4ROOT3RDF11RSampleInfoEEEEEEPSA_EEED1B7v160006Ev, symObjAddr: 0x1A90C, symBinAddr: 0x10001DF3C, symSize: 0x80 }
  - { offsetInCU: 0x154BC8, offset: 0x154BC8, size: 0x8, addend: 0x0, symName: __ZNSt3__128__exception_guard_exceptionsINS_6vectorINS_8functionIFvjRKN4ROOT3RDF11RSampleInfoEEEENS_9allocatorIS9_EEE16__destroy_vectorEED1B7v160006Ev, symObjAddr: 0x1A85C, symBinAddr: 0x10001DE8C, symSize: 0xB0 }
  - { offsetInCU: 0x154E8C, offset: 0x154E8C, size: 0x8, addend: 0x0, symName: __ZNSt3__117bad_function_callD1Ev, symObjAddr: 0x1A9C0, symBinAddr: 0x10001DFF0, symSize: 0x4 }
  - { offsetInCU: 0x154EAE, offset: 0x154EAE, size: 0x8, addend: 0x0, symName: __ZNSt3__117bad_function_callD1Ev, symObjAddr: 0x1A9C0, symBinAddr: 0x10001DFF0, symSize: 0x4 }
  - { offsetInCU: 0x154EE2, offset: 0x154EE2, size: 0x8, addend: 0x0, symName: __ZNSt3__117bad_function_callD0Ev, symObjAddr: 0x1A9C4, symBinAddr: 0x10001DFF4, symSize: 0x14 }
  - { offsetInCU: 0x154F67, offset: 0x154F67, size: 0x8, addend: 0x0, symName: __ZNSt3__16vectorINS_10shared_ptrIN4ROOT6Detail3RDF12RLoopManagerEEENS_9allocatorIS6_EEEC1ERKS9_, symObjAddr: 0x1AAE0, symBinAddr: 0x10001E110, symSize: 0xC8 }
  - { offsetInCU: 0x1553C1, offset: 0x1553C1, size: 0x8, addend: 0x0, symName: __ZNSt3__16vectorINS_10shared_ptrIN4ROOT6Detail3RDF12RLoopManagerEEENS_9allocatorIS6_EEEC1ERKS9_.cold.1, symObjAddr: 0x1E55C, symBinAddr: 0x1000226AC, symSize: 0x60 }
  - { offsetInCU: 0x1555CB, offset: 0x1555CB, size: 0x8, addend: 0x0, symName: __ZNSt3__120__shared_ptr_pointerIPN4ROOT8Internal3RDF7RActionINS3_11CountHelperENS1_6Detail3RDF12RLoopManagerENS1_10TypeTraits8TypeListIJEEEEENS_14default_deleteISC_EENS_9allocatorISC_EEED1Ev, symObjAddr: 0x1ABA8, symBinAddr: 0x10001E1D8, symSize: 0x4 }
  - { offsetInCU: 0x1555ED, offset: 0x1555ED, size: 0x8, addend: 0x0, symName: __ZNSt3__120__shared_ptr_pointerIPN4ROOT8Internal3RDF7RActionINS3_11CountHelperENS1_6Detail3RDF12RLoopManagerENS1_10TypeTraits8TypeListIJEEEEENS_14default_deleteISC_EENS_9allocatorISC_EEED1Ev, symObjAddr: 0x1ABA8, symBinAddr: 0x10001E1D8, symSize: 0x4 }
  - { offsetInCU: 0x155623, offset: 0x155623, size: 0x8, addend: 0x0, symName: __ZNSt3__120__shared_ptr_pointerIPN4ROOT8Internal3RDF7RActionINS3_11CountHelperENS1_6Detail3RDF12RLoopManagerENS1_10TypeTraits8TypeListIJEEEEENS_14default_deleteISC_EENS_9allocatorISC_EEED0Ev, symObjAddr: 0x1ABAC, symBinAddr: 0x10001E1DC, symSize: 0x14 }
  - { offsetInCU: 0x155686, offset: 0x155686, size: 0x8, addend: 0x0, symName: __ZNSt3__120__shared_ptr_pointerIPN4ROOT8Internal3RDF7RActionINS3_11CountHelperENS1_6Detail3RDF12RLoopManagerENS1_10TypeTraits8TypeListIJEEEEENS_14default_deleteISC_EENS_9allocatorISC_EEE16__on_zero_sharedEv, symObjAddr: 0x1ABC0, symBinAddr: 0x10001E1F0, symSize: 0x18 }
  - { offsetInCU: 0x1556D6, offset: 0x1556D6, size: 0x8, addend: 0x0, symName: __ZNKSt3__120__shared_ptr_pointerIPN4ROOT8Internal3RDF7RActionINS3_11CountHelperENS1_6Detail3RDF12RLoopManagerENS1_10TypeTraits8TypeListIJEEEEENS_14default_deleteISC_EENS_9allocatorISC_EEE13__get_deleterERKSt9type_info, symObjAddr: 0x1ABD8, symBinAddr: 0x10001E208, symSize: 0x74 }
  - { offsetInCU: 0x1557B4, offset: 0x1557B4, size: 0x8, addend: 0x0, symName: __ZNSt3__120__shared_ptr_pointerIPN4ROOT8Internal3RDF7RActionINS3_11CountHelperENS1_6Detail3RDF12RLoopManagerENS1_10TypeTraits8TypeListIJEEEEENS_14default_deleteISC_EENS_9allocatorISC_EEE21__on_zero_shared_weakEv, symObjAddr: 0x1AC4C, symBinAddr: 0x10001E27C, symSize: 0x4 }
  - { offsetInCU: 0x1557E8, offset: 0x1557E8, size: 0x8, addend: 0x0, symName: __ZNSt3__120__shared_ptr_pointerIPN4ROOT8Internal3RDF7RActionINS3_11CountHelperENS1_6Detail3RDF12RLoopManagerENS1_10TypeTraits8TypeListIJEEEEENS_14default_deleteISC_EENS_9allocatorISC_EEE21__on_zero_shared_weakEv, symObjAddr: 0x1AC4C, symBinAddr: 0x10001E27C, symSize: 0x4 }
  - { offsetInCU: 0x15580A, offset: 0x15580A, size: 0x8, addend: 0x0, symName: __ZNSt3__120__shared_ptr_pointerIPN4ROOT8Internal3RDF7RActionINS3_11CountHelperENS1_6Detail3RDF12RLoopManagerENS1_10TypeTraits8TypeListIJEEEEENS_14default_deleteISC_EENS_9allocatorISC_EEE21__on_zero_shared_weakEv, symObjAddr: 0x1AC4C, symBinAddr: 0x10001E27C, symSize: 0x4 }
  - { offsetInCU: 0x155835, offset: 0x155835, size: 0x8, addend: 0x0, symName: __ZNSt3__120__shared_ptr_pointerIPN4ROOT8Internal3RDF7RActionINS3_11CountHelperENS1_6Detail3RDF12RLoopManagerENS1_10TypeTraits8TypeListIJEEEEENS_14default_deleteISC_EENS_9allocatorISC_EEE21__on_zero_shared_weakEv, symObjAddr: 0x1AC4C, symBinAddr: 0x10001E27C, symSize: 0x4 }
  - { offsetInCU: 0x15585B, offset: 0x15585B, size: 0x8, addend: 0x0, symName: __ZNSt3__120__shared_ptr_pointerIPN4ROOT8Internal3RDF7RActionINS3_11CountHelperENS1_6Detail3RDF12RLoopManagerENS1_10TypeTraits8TypeListIJEEEEENS_14default_deleteISC_EENS_9allocatorISC_EEE21__on_zero_shared_weakEv, symObjAddr: 0x1AC4C, symBinAddr: 0x10001E27C, symSize: 0x4 }
  - { offsetInCU: 0x1558A1, offset: 0x1558A1, size: 0x8, addend: 0x0, symName: __ZNSt3__120__shared_ptr_emplaceIN4ROOT3RDF14RCutFlowReportENS_9allocatorIS3_EEED1Ev, symObjAddr: 0x1ACC0, symBinAddr: 0x10001E2F0, symSize: 0x14 }
  - { offsetInCU: 0x1558C3, offset: 0x1558C3, size: 0x8, addend: 0x0, symName: __ZNSt3__120__shared_ptr_emplaceIN4ROOT3RDF14RCutFlowReportENS_9allocatorIS3_EEED1Ev, symObjAddr: 0x1ACC0, symBinAddr: 0x10001E2F0, symSize: 0x14 }
  - { offsetInCU: 0x1558FB, offset: 0x1558FB, size: 0x8, addend: 0x0, symName: __ZNSt3__120__shared_ptr_emplaceIN4ROOT3RDF14RCutFlowReportENS_9allocatorIS3_EEED0Ev, symObjAddr: 0x1ACD4, symBinAddr: 0x10001E304, symSize: 0x24 }
  - { offsetInCU: 0x155B0F, offset: 0x155B0F, size: 0x8, addend: 0x0, symName: __ZNSt3__120__shared_ptr_emplaceIN4ROOT3RDF14RCutFlowReportENS_9allocatorIS3_EEE16__on_zero_sharedEv, symObjAddr: 0x1ACF8, symBinAddr: 0x10001E328, symSize: 0x8C }
  - { offsetInCU: 0x155E6A, offset: 0x155E6A, size: 0x8, addend: 0x0, symName: __ZNSt3__120__shared_ptr_emplaceIN4ROOT3RDF14RCutFlowReportENS_9allocatorIS3_EEE21__on_zero_shared_weakEv, symObjAddr: 0x1AD84, symBinAddr: 0x10001E3B4, symSize: 0x4 }
  - { offsetInCU: 0x155E9D, offset: 0x155E9D, size: 0x8, addend: 0x0, symName: __ZNSt3__120__shared_ptr_emplaceIN4ROOT3RDF14RCutFlowReportENS_9allocatorIS3_EEE21__on_zero_shared_weakEv, symObjAddr: 0x1AD84, symBinAddr: 0x10001E3B4, symSize: 0x4 }
  - { offsetInCU: 0x155EBF, offset: 0x155EBF, size: 0x8, addend: 0x0, symName: __ZNSt3__120__shared_ptr_emplaceIN4ROOT3RDF14RCutFlowReportENS_9allocatorIS3_EEE21__on_zero_shared_weakEv, symObjAddr: 0x1AD84, symBinAddr: 0x10001E3B4, symSize: 0x4 }
  - { offsetInCU: 0x155EE1, offset: 0x155EE1, size: 0x8, addend: 0x0, symName: __ZNSt3__120__shared_ptr_emplaceIN4ROOT3RDF14RCutFlowReportENS_9allocatorIS3_EEE21__on_zero_shared_weakEv, symObjAddr: 0x1AD84, symBinAddr: 0x10001E3B4, symSize: 0x4 }
  - { offsetInCU: 0x155F0D, offset: 0x155F0D, size: 0x8, addend: 0x0, symName: __ZNSt3__120__shared_ptr_emplaceIN4ROOT3RDF14RCutFlowReportENS_9allocatorIS3_EEE21__on_zero_shared_weakEv, symObjAddr: 0x1AD84, symBinAddr: 0x10001E3B4, symSize: 0x4 }
  - { offsetInCU: 0x155F34, offset: 0x155F34, size: 0x8, addend: 0x0, symName: __ZNSt3__120__shared_ptr_emplaceIN4ROOT3RDF14RCutFlowReportENS_9allocatorIS3_EEE21__on_zero_shared_weakEv, symObjAddr: 0x1AD84, symBinAddr: 0x10001E3B4, symSize: 0x4 }
  - { offsetInCU: 0x156030, offset: 0x156030, size: 0x8, addend: 0x0, symName: __ZN4ROOT8Internal3RDF7RActionINS1_12ReportHelperINS_6Detail3RDF13RJittedFilterEEES6_NS_10TypeTraits8TypeListIJEEEED1Ev, symObjAddr: 0x1AF00, symBinAddr: 0x10001E530, symSize: 0x4 }
  - { offsetInCU: 0x156053, offset: 0x156053, size: 0x8, addend: 0x0, symName: __ZN4ROOT8Internal3RDF7RActionINS1_12ReportHelperINS_6Detail3RDF13RJittedFilterEEES6_NS_10TypeTraits8TypeListIJEEEED1Ev, symObjAddr: 0x1AF00, symBinAddr: 0x10001E530, symSize: 0x4 }
  - { offsetInCU: 0x156066, offset: 0x156066, size: 0x8, addend: 0x0, symName: __ZN4ROOT8Internal3RDF7RActionINS1_12ReportHelperINS_6Detail3RDF13RJittedFilterEEES6_NS_10TypeTraits8TypeListIJEEEED2Ev, symObjAddr: 0x1B5F4, symBinAddr: 0x10001EC24, symSize: 0xD0 }
  - { offsetInCU: 0x156341, offset: 0x156341, size: 0x8, addend: 0x0, symName: __ZN4ROOT8Internal3RDF7RActionINS1_12ReportHelperINS_6Detail3RDF13RJittedFilterEEES6_NS_10TypeTraits8TypeListIJEEEED0Ev, symObjAddr: 0x1AF04, symBinAddr: 0x10001E534, symSize: 0x14 }
  - { offsetInCU: 0x15639B, offset: 0x15639B, size: 0x8, addend: 0x0, symName: __ZN4ROOT8Internal3RDF7RActionINS1_12ReportHelperINS_6Detail3RDF13RJittedFilterEEES6_NS_10TypeTraits8TypeListIJEEEE3RunEjx, symObjAddr: 0x1AF18, symBinAddr: 0x10001E548, symSize: 0x8 }
  - { offsetInCU: 0x1563DE, offset: 0x1563DE, size: 0x8, addend: 0x0, symName: __ZN4ROOT8Internal3RDF7RActionINS1_12ReportHelperINS_6Detail3RDF13RJittedFilterEEES6_NS_10TypeTraits8TypeListIJEEEE10InitializeEv, symObjAddr: 0x1AF20, symBinAddr: 0x10001E550, symSize: 0x4 }
  - { offsetInCU: 0x156403, offset: 0x156403, size: 0x8, addend: 0x0, symName: __ZN4ROOT8Internal3RDF7RActionINS1_12ReportHelperINS_6Detail3RDF13RJittedFilterEEES6_NS_10TypeTraits8TypeListIJEEEE8InitSlotEP11TTreeReaderj, symObjAddr: 0x1AF24, symBinAddr: 0x10001E554, symSize: 0x60 }
  - { offsetInCU: 0x156743, offset: 0x156743, size: 0x8, addend: 0x0, symName: __ZN4ROOT8Internal3RDF7RActionINS1_12ReportHelperINS_6Detail3RDF13RJittedFilterEEES6_NS_10TypeTraits8TypeListIJEEEE20TriggerChildrenCountEv, symObjAddr: 0x1AF84, symBinAddr: 0x10001E5B4, symSize: 0x8 }
  - { offsetInCU: 0x15676A, offset: 0x15676A, size: 0x8, addend: 0x0, symName: __ZN4ROOT8Internal3RDF7RActionINS1_12ReportHelperINS_6Detail3RDF13RJittedFilterEEES6_NS_10TypeTraits8TypeListIJEEEE12FinalizeSlotEj, symObjAddr: 0x1AF8C, symBinAddr: 0x10001E5BC, symSize: 0x4 }
  - { offsetInCU: 0x1567C9, offset: 0x1567C9, size: 0x8, addend: 0x0, symName: __ZN4ROOT8Internal3RDF7RActionINS1_12ReportHelperINS_6Detail3RDF13RJittedFilterEEES6_NS_10TypeTraits8TypeListIJEEEE8FinalizeEv, symObjAddr: 0x1AF90, symBinAddr: 0x10001E5C0, symSize: 0x54 }
  - { offsetInCU: 0x15684B, offset: 0x15684B, size: 0x8, addend: 0x0, symName: __ZN4ROOT8Internal3RDF7RActionINS1_12ReportHelperINS_6Detail3RDF13RJittedFilterEEES6_NS_10TypeTraits8TypeListIJEEEE13PartialUpdateEj, symObjAddr: 0x1AFE4, symBinAddr: 0x10001E614, symSize: 0x18 }
  - { offsetInCU: 0x156883, offset: 0x156883, size: 0x8, addend: 0x0, symName: __ZN4ROOT8Internal3RDF7RActionINS1_12ReportHelperINS_6Detail3RDF13RJittedFilterEEES6_NS_10TypeTraits8TypeListIJEEEE8GetGraphERNSt3__113unordered_mapIPvNSC_10shared_ptrINS1_12GraphDrawing9GraphNodeEEENSC_4hashISE_EENSC_8equal_toISE_EENSC_9allocatorINSC_4pairIKSE_SI_EEEEEE, symObjAddr: 0x1AFFC, symBinAddr: 0x10001E62C, symSize: 0x348 }
  - { offsetInCU: 0x15688E, offset: 0x15688E, size: 0x8, addend: 0x0, symName: __ZN4ROOT6Detail3RDF11RActionImplINS_8Internal3RDF12ReportHelperINS1_13RJittedFilterEEEE17CallPartialUpdateIJEEEPvz, symObjAddr: 0x1B6C4, symBinAddr: 0x10001ECF4, symSize: 0x50 }
  - { offsetInCU: 0x1568D1, offset: 0x1568D1, size: 0x8, addend: 0x0, symName: __ZN4ROOT8Internal3RDF7RActionINS1_12ReportHelperINS_6Detail3RDF13RJittedFilterEEES6_NS_10TypeTraits8TypeListIJEEEE8GetGraphERNSt3__113unordered_mapIPvNSC_10shared_ptrINS1_12GraphDrawing9GraphNodeEEENSC_4hashISE_EENSC_8equal_toISE_EENSC_9allocatorINSC_4pairIKSE_SI_EEEEEE, symObjAddr: 0x1AFFC, symBinAddr: 0x10001E62C, symSize: 0x348 }
  - { offsetInCU: 0x157AFF, offset: 0x157AFF, size: 0x8, addend: 0x0, symName: __ZNK4ROOT8Internal3RDF7RActionINS1_12ReportHelperINS_6Detail3RDF13RJittedFilterEEES6_NS_10TypeTraits8TypeListIJEEEE17GetMergeableValueEv, symObjAddr: 0x1B344, symBinAddr: 0x10001E974, symSize: 0x50 }
  - { offsetInCU: 0x157B60, offset: 0x157B60, size: 0x8, addend: 0x0, symName: __ZN4ROOT8Internal3RDF7RActionINS1_12ReportHelperINS_6Detail3RDF13RJittedFilterEEES6_NS_10TypeTraits8TypeListIJEEEE17GetSampleCallbackEv, symObjAddr: 0x1B394, symBinAddr: 0x10001E9C4, symSize: 0x8 }
  - { offsetInCU: 0x157B87, offset: 0x157B87, size: 0x8, addend: 0x0, symName: __ZN4ROOT8Internal3RDF7RActionINS1_12ReportHelperINS_6Detail3RDF13RJittedFilterEEES6_NS_10TypeTraits8TypeListIJEEEE17GetSampleCallbackEv, symObjAddr: 0x1B394, symBinAddr: 0x10001E9C4, symSize: 0x8 }
  - { offsetInCU: 0x157BA5, offset: 0x157BA5, size: 0x8, addend: 0x0, symName: __ZN4ROOT8Internal3RDF7RActionINS1_12ReportHelperINS_6Detail3RDF13RJittedFilterEEES6_NS_10TypeTraits8TypeListIJEEEE17GetSampleCallbackEv, symObjAddr: 0x1B394, symBinAddr: 0x10001E9C4, symSize: 0x8 }
  - { offsetInCU: 0x157BC0, offset: 0x157BC0, size: 0x8, addend: 0x0, symName: __ZN4ROOT8Internal3RDF7RActionINS1_12ReportHelperINS_6Detail3RDF13RJittedFilterEEES6_NS_10TypeTraits8TypeListIJEEEE17GetSampleCallbackEv, symObjAddr: 0x1B394, symBinAddr: 0x10001E9C4, symSize: 0x8 }
  - { offsetInCU: 0x157BDC, offset: 0x157BDC, size: 0x8, addend: 0x0, symName: __ZN4ROOT8Internal3RDF7RActionINS1_12ReportHelperINS_6Detail3RDF13RJittedFilterEEES6_NS_10TypeTraits8TypeListIJEEEE17GetSampleCallbackEv, symObjAddr: 0x1B394, symBinAddr: 0x10001E9C4, symSize: 0x8 }
  - { offsetInCU: 0x157BF8, offset: 0x157BF8, size: 0x8, addend: 0x0, symName: __ZN4ROOT8Internal3RDF7RActionINS1_12ReportHelperINS_6Detail3RDF13RJittedFilterEEES6_NS_10TypeTraits8TypeListIJEEEE17GetSampleCallbackEv, symObjAddr: 0x1B394, symBinAddr: 0x10001E9C4, symSize: 0x8 }
  - { offsetInCU: 0x157DD5, offset: 0x157DD5, size: 0x8, addend: 0x0, symName: __ZN4ROOT8Internal3RDF7RActionINS1_12ReportHelperINS_6Detail3RDF13RJittedFilterEEES6_NS_10TypeTraits8TypeListIJEEEE16MakeVariedActionEONSt3__16vectorIPvNSC_9allocatorISE_EEEE, symObjAddr: 0x1B39C, symBinAddr: 0x10001E9CC, symSize: 0x178 }
  - { offsetInCU: 0x158385, offset: 0x158385, size: 0x8, addend: 0x0, symName: __ZNSt3__16vectorIN4ROOT8Internal3RDF12ReportHelperINS1_6Detail3RDF13RJittedFilterEEENS_9allocatorIS8_EEE7reserveEm, symObjAddr: 0x1B714, symBinAddr: 0x10001ED44, symSize: 0x12C }
  - { offsetInCU: 0x158796, offset: 0x158796, size: 0x8, addend: 0x0, symName: __ZN4ROOT6Detail3RDF11RActionImplINS_8Internal3RDF12ReportHelperINS1_13RJittedFilterEEEE11CallMakeNewIJEEES7_PvDpT_, symObjAddr: 0x1B840, symBinAddr: 0x10001EE70, symSize: 0x11C }
  - { offsetInCU: 0x1587A8, offset: 0x1587A8, size: 0x8, addend: 0x0, symName: __ZN4ROOT8Internal3RDF13RVariedActionINS1_12ReportHelperINS_6Detail3RDF13RJittedFilterEEES6_NS_10TypeTraits8TypeListIJEEEEC2EONSt3__16vectorIS7_NSC_9allocatorIS7_EEEERKNSD_INSC_12basic_stringIcNSC_11char_traitsIcEENSE_IcEEEENSE_ISM_EEEENSC_10shared_ptrIS6_EERKNS1_15RColumnRegisterE, symObjAddr: 0x1B9E0, symBinAddr: 0x10001F010, symSize: 0x164 }
  - { offsetInCU: 0x158B0D, offset: 0x158B0D, size: 0x8, addend: 0x0, symName: __ZN4ROOT8Internal3RDF7RActionINS1_12ReportHelperINS_6Detail3RDF13RJittedFilterEEES6_NS_10TypeTraits8TypeListIJEEEE16MakeVariedActionEONSt3__16vectorIPvNSC_9allocatorISE_EEEE.cold.1, symObjAddr: 0x1E5BC, symBinAddr: 0x10002270C, symSize: 0x28 }
  - { offsetInCU: 0x158B25, offset: 0x158B25, size: 0x8, addend: 0x0, symName: __ZN4ROOT6Detail3RDF11RActionImplINS_8Internal3RDF12ReportHelperINS1_13RJittedFilterEEEE11CallMakeNewIJEEES7_PvDpT_, symObjAddr: 0x1B840, symBinAddr: 0x10001EE70, symSize: 0x11C }
  - { offsetInCU: 0x159132, offset: 0x159132, size: 0x8, addend: 0x0, symName: __ZNSt3__16vectorIN4ROOT8Internal3RDF12ReportHelperINS1_6Detail3RDF13RJittedFilterEEENS_9allocatorIS8_EEED1B7v160006Ev, symObjAddr: 0x1B95C, symBinAddr: 0x10001EF8C, symSize: 0x70 }
  - { offsetInCU: 0x1592D3, offset: 0x1592D3, size: 0x8, addend: 0x0, symName: __ZN4ROOT8Internal3RDF7RActionINS1_12ReportHelperINS_6Detail3RDF13RJittedFilterEEES6_NS_10TypeTraits8TypeListIJEEEE11CloneActionEPv, symObjAddr: 0x1B514, symBinAddr: 0x10001EB44, symSize: 0x18 }
  - { offsetInCU: 0x15930B, offset: 0x15930B, size: 0x8, addend: 0x0, symName: __ZN4ROOT8Internal3RDF12ReportHelperINS_6Detail3RDF13RJittedFilterEED0Ev, symObjAddr: 0x1B52C, symBinAddr: 0x10001EB5C, symSize: 0x70 }
  - { offsetInCU: 0x159324, offset: 0x159324, size: 0x8, addend: 0x0, symName: __ZN4ROOT8Internal3RDF12ReportHelperINS_6Detail3RDF13RJittedFilterEED0Ev, symObjAddr: 0x1B52C, symBinAddr: 0x10001EB5C, symSize: 0x70 }
  - { offsetInCU: 0x159405, offset: 0x159405, size: 0x8, addend: 0x0, symName: __ZNK4ROOT6Detail3RDF11RActionImplINS_8Internal3RDF12ReportHelperINS1_13RJittedFilterEEEE17GetMergeableValueEv, symObjAddr: 0x1B59C, symBinAddr: 0x10001EBCC, symSize: 0x50 }
  - { offsetInCU: 0x159427, offset: 0x159427, size: 0x8, addend: 0x0, symName: __ZN4ROOT6Detail3RDF11RActionImplINS_8Internal3RDF12ReportHelperINS1_13RJittedFilterEEEE17GetSampleCallbackEv, symObjAddr: 0x1B5EC, symBinAddr: 0x10001EC1C, symSize: 0x8 }
  - { offsetInCU: 0x159449, offset: 0x159449, size: 0x8, addend: 0x0, symName: __ZN4ROOT6Detail3RDF11RActionImplINS_8Internal3RDF12ReportHelperINS1_13RJittedFilterEEEE17GetSampleCallbackEv, symObjAddr: 0x1B5EC, symBinAddr: 0x10001EC1C, symSize: 0x8 }
  - { offsetInCU: 0x159464, offset: 0x159464, size: 0x8, addend: 0x0, symName: __ZN4ROOT6Detail3RDF11RActionImplINS_8Internal3RDF12ReportHelperINS1_13RJittedFilterEEEE17GetSampleCallbackEv, symObjAddr: 0x1B5EC, symBinAddr: 0x10001EC1C, symSize: 0x8 }
  - { offsetInCU: 0x159480, offset: 0x159480, size: 0x8, addend: 0x0, symName: __ZN4ROOT6Detail3RDF11RActionImplINS_8Internal3RDF12ReportHelperINS1_13RJittedFilterEEEE17GetSampleCallbackEv, symObjAddr: 0x1B5EC, symBinAddr: 0x10001EC1C, symSize: 0x8 }
  - { offsetInCU: 0x15949C, offset: 0x15949C, size: 0x8, addend: 0x0, symName: __ZN4ROOT6Detail3RDF11RActionImplINS_8Internal3RDF12ReportHelperINS1_13RJittedFilterEEEE17GetSampleCallbackEv, symObjAddr: 0x1B5EC, symBinAddr: 0x10001EC1C, symSize: 0x8 }
  - { offsetInCU: 0x159702, offset: 0x159702, size: 0x8, addend: 0x0, symName: __ZNKSt3__16vectorIN4ROOT8Internal3RDF12ReportHelperINS1_6Detail3RDF13RJittedFilterEEENS_9allocatorIS8_EEE20__throw_length_errorB7v160006Ev, symObjAddr: 0x1B9CC, symBinAddr: 0x10001EFFC, symSize: 0x14 }
  - { offsetInCU: 0x15972B, offset: 0x15972B, size: 0x8, addend: 0x0, symName: __ZN4ROOT8Internal3RDF13RVariedActionINS1_12ReportHelperINS_6Detail3RDF13RJittedFilterEEES6_NS_10TypeTraits8TypeListIJEEEEC2EONSt3__16vectorIS7_NSC_9allocatorIS7_EEEERKNSD_INSC_12basic_stringIcNSC_11char_traitsIcEENSE_IcEEEENSE_ISM_EEEENSC_10shared_ptrIS6_EERKNS1_15RColumnRegisterE, symObjAddr: 0x1B9E0, symBinAddr: 0x10001F010, symSize: 0x164 }
  - { offsetInCU: 0x1597CE, offset: 0x1597CE, size: 0x8, addend: 0x0, symName: __ZNK4ROOT8Internal3RDF13RVariedActionINS1_12ReportHelperINS_6Detail3RDF13RJittedFilterEEES6_NS_10TypeTraits8TypeListIJEEEE15MakePrevFiltersENSt3__110shared_ptrIS6_EE, symObjAddr: 0x1BB44, symBinAddr: 0x10001F174, symSize: 0x2E0 }
  - { offsetInCU: 0x15A14B, offset: 0x15A14B, size: 0x8, addend: 0x0, symName: __ZNSt3__16vectorINS_10shared_ptrIN4ROOT6Detail3RDF11RFilterBaseEEENS_9allocatorIS6_EEED1B7v160006Ev, symObjAddr: 0x1BE24, symBinAddr: 0x10001F454, symSize: 0x98 }
  - { offsetInCU: 0x15A822, offset: 0x15A822, size: 0x8, addend: 0x0, symName: __ZNSt3__16vectorINS_10shared_ptrIN4ROOT6Detail3RDF11RFilterBaseEEENS_9allocatorIS6_EEE7reserveEm, symObjAddr: 0x1CB8C, symBinAddr: 0x1000201BC, symSize: 0x108 }
  - { offsetInCU: 0x15AC6B, offset: 0x15AC6B, size: 0x8, addend: 0x0, symName: __ZNSt3__110shared_ptrIN4ROOT6Detail3RDF11RFilterBaseEED1B7v160006Ev, symObjAddr: 0x1CC94, symBinAddr: 0x1000202C4, symSize: 0x60 }
  - { offsetInCU: 0x15AC7D, offset: 0x15AC7D, size: 0x8, addend: 0x0, symName: __ZNSt3__16vectorINS_10shared_ptrIN4ROOT6Detail3RDF11RFilterBaseEEENS_9allocatorIS6_EEE24__emplace_back_slow_pathIJRNS1_INS4_13RJittedFilterEEEEEEvDpOT_, symObjAddr: 0x1D02C, symBinAddr: 0x10002065C, symSize: 0x170 }
  - { offsetInCU: 0x15B22B, offset: 0x15B22B, size: 0x8, addend: 0x0, symName: __ZN4ROOT8Internal3RDF13RVariedActionINS1_12ReportHelperINS_6Detail3RDF13RJittedFilterEEES6_NS_10TypeTraits8TypeListIJEEEED2Ev, symObjAddr: 0x1D19C, symBinAddr: 0x1000207CC, symSize: 0x13C }
  - { offsetInCU: 0x15B241, offset: 0x15B241, size: 0x8, addend: 0x0, symName: __ZNSt3__16vectorINS_10shared_ptrIN4ROOT6Detail3RDF11RFilterBaseEEENS_9allocatorIS6_EEE24__emplace_back_slow_pathIJS6_EEEvDpOT_, symObjAddr: 0x1CED4, symBinAddr: 0x100020504, symSize: 0x158 }
  - { offsetInCU: 0x15B78D, offset: 0x15B78D, size: 0x8, addend: 0x0, symName: __ZNSt3__16vectorINS_10shared_ptrIN4ROOT6Detail3RDF11RFilterBaseEEENS_9allocatorIS6_EEE24__emplace_back_slow_pathIJRNS1_INS4_13RJittedFilterEEEEEEvDpOT_, symObjAddr: 0x1D02C, symBinAddr: 0x10002065C, symSize: 0x170 }
  - { offsetInCU: 0x15B7A3, offset: 0x15B7A3, size: 0x8, addend: 0x0, symName: __ZNSt3__16vectorINS_10shared_ptrIN4ROOT6Detail3RDF11RFilterBaseEEENS_9allocatorIS6_EEE8__appendEmRKS6_, symObjAddr: 0x1CD08, symBinAddr: 0x100020338, symSize: 0x1CC }
  - { offsetInCU: 0x15BF3F, offset: 0x15BF3F, size: 0x8, addend: 0x0, symName: __ZNSt3__16vectorINS_10shared_ptrIN4ROOT6Detail3RDF11RFilterBaseEEENS_9allocatorIS6_EEE24__emplace_back_slow_pathIJS6_EEEvDpOT_, symObjAddr: 0x1CED4, symBinAddr: 0x100020504, symSize: 0x158 }
  - { offsetInCU: 0x15BF4A, offset: 0x15BF4A, size: 0x8, addend: 0x0, symName: __ZNSt3__110shared_ptrIN4ROOT6Detail3RDF11RFilterBaseEED1B7v160006Ev, symObjAddr: 0x1CC94, symBinAddr: 0x1000202C4, symSize: 0x60 }
  - { offsetInCU: 0x15C082, offset: 0x15C082, size: 0x8, addend: 0x0, symName: __ZN4ROOT8Internal3RDF13RVariedActionINS1_12ReportHelperINS_6Detail3RDF13RJittedFilterEEES6_NS_10TypeTraits8TypeListIJEEEED1Ev, symObjAddr: 0x1BEBC, symBinAddr: 0x10001F4EC, symSize: 0x4 }
  - { offsetInCU: 0x15C0A5, offset: 0x15C0A5, size: 0x8, addend: 0x0, symName: __ZN4ROOT8Internal3RDF13RVariedActionINS1_12ReportHelperINS_6Detail3RDF13RJittedFilterEEES6_NS_10TypeTraits8TypeListIJEEEED1Ev, symObjAddr: 0x1BEBC, symBinAddr: 0x10001F4EC, symSize: 0x4 }
  - { offsetInCU: 0x15C0B8, offset: 0x15C0B8, size: 0x8, addend: 0x0, symName: __ZN4ROOT8Internal3RDF13RVariedActionINS1_12ReportHelperINS_6Detail3RDF13RJittedFilterEEES6_NS_10TypeTraits8TypeListIJEEEED2Ev, symObjAddr: 0x1D19C, symBinAddr: 0x1000207CC, symSize: 0x13C }
  - { offsetInCU: 0x15C760, offset: 0x15C760, size: 0x8, addend: 0x0, symName: __ZN4ROOT8Internal3RDF13RVariedActionINS1_12ReportHelperINS_6Detail3RDF13RJittedFilterEEES6_NS_10TypeTraits8TypeListIJEEEED0Ev, symObjAddr: 0x1BEC0, symBinAddr: 0x10001F4F0, symSize: 0x14 }
  - { offsetInCU: 0x15C7F4, offset: 0x15C7F4, size: 0x8, addend: 0x0, symName: __ZN4ROOT8Internal3RDF13RVariedActionINS1_12ReportHelperINS_6Detail3RDF13RJittedFilterEEES6_NS_10TypeTraits8TypeListIJEEEE3RunEjx, symObjAddr: 0x1BED4, symBinAddr: 0x10001F504, symSize: 0x88 }
  - { offsetInCU: 0x15C8BF, offset: 0x15C8BF, size: 0x8, addend: 0x0, symName: __ZN4ROOT8Internal3RDF13RVariedActionINS1_12ReportHelperINS_6Detail3RDF13RJittedFilterEEES6_NS_10TypeTraits8TypeListIJEEEE10InitializeEv, symObjAddr: 0x1BF5C, symBinAddr: 0x10001F58C, symSize: 0x4 }
  - { offsetInCU: 0x15C8E4, offset: 0x15C8E4, size: 0x8, addend: 0x0, symName: __ZN4ROOT8Internal3RDF13RVariedActionINS1_12ReportHelperINS_6Detail3RDF13RJittedFilterEEES6_NS_10TypeTraits8TypeListIJEEEE8InitSlotEP11TTreeReaderj, symObjAddr: 0x1BF60, symBinAddr: 0x10001F590, symSize: 0x208 }
  - { offsetInCU: 0x15CDB2, offset: 0x15CDB2, size: 0x8, addend: 0x0, symName: __ZN4ROOT8Internal3RDF13RVariedActionINS1_12ReportHelperINS_6Detail3RDF13RJittedFilterEEES6_NS_10TypeTraits8TypeListIJEEEE20TriggerChildrenCountEv, symObjAddr: 0x1C168, symBinAddr: 0x10001F798, symSize: 0x3C }
  - { offsetInCU: 0x15CDD5, offset: 0x15CDD5, size: 0x8, addend: 0x0, symName: __ZN4ROOT8Internal3RDF13RVariedActionINS1_12ReportHelperINS_6Detail3RDF13RJittedFilterEEES6_NS_10TypeTraits8TypeListIJEEEE20TriggerChildrenCountEv, symObjAddr: 0x1C168, symBinAddr: 0x10001F798, symSize: 0x3C }
  - { offsetInCU: 0x15CEE9, offset: 0x15CEE9, size: 0x8, addend: 0x0, symName: __ZN4ROOT8Internal3RDF13RVariedActionINS1_12ReportHelperINS_6Detail3RDF13RJittedFilterEEES6_NS_10TypeTraits8TypeListIJEEEE12FinalizeSlotEj, symObjAddr: 0x1C1A4, symBinAddr: 0x10001F7D4, symSize: 0x18 }
  - { offsetInCU: 0x15CF1E, offset: 0x15CF1E, size: 0x8, addend: 0x0, symName: __ZN4ROOT8Internal3RDF13RVariedActionINS1_12ReportHelperINS_6Detail3RDF13RJittedFilterEEES6_NS_10TypeTraits8TypeListIJEEEE12FinalizeSlotEj, symObjAddr: 0x1C1A4, symBinAddr: 0x10001F7D4, symSize: 0x18 }
  - { offsetInCU: 0x15CFEF, offset: 0x15CFEF, size: 0x8, addend: 0x0, symName: __ZN4ROOT8Internal3RDF13RVariedActionINS1_12ReportHelperINS_6Detail3RDF13RJittedFilterEEES6_NS_10TypeTraits8TypeListIJEEEE8FinalizeEv, symObjAddr: 0x1C1BC, symBinAddr: 0x10001F7EC, symSize: 0x58 }
  - { offsetInCU: 0x15D148, offset: 0x15D148, size: 0x8, addend: 0x0, symName: __ZN4ROOT8Internal3RDF13RVariedActionINS1_12ReportHelperINS_6Detail3RDF13RJittedFilterEEES6_NS_10TypeTraits8TypeListIJEEEE13PartialUpdateEj, symObjAddr: 0x1C214, symBinAddr: 0x10001F844, symSize: 0x50 }
  - { offsetInCU: 0x15D19C, offset: 0x15D19C, size: 0x8, addend: 0x0, symName: __ZN4ROOT8Internal3RDF13RVariedActionINS1_12ReportHelperINS_6Detail3RDF13RJittedFilterEEES6_NS_10TypeTraits8TypeListIJEEEE8GetGraphERNSt3__113unordered_mapIPvNSC_10shared_ptrINS1_12GraphDrawing9GraphNodeEEENSC_4hashISE_EENSC_8equal_toISE_EENSC_9allocatorINSC_4pairIKSE_SI_EEEEEE, symObjAddr: 0x1C264, symBinAddr: 0x10001F894, symSize: 0x3E4 }
  - { offsetInCU: 0x15E786, offset: 0x15E786, size: 0x8, addend: 0x0, symName: __ZNK4ROOT8Internal3RDF13RVariedActionINS1_12ReportHelperINS_6Detail3RDF13RJittedFilterEEES6_NS_10TypeTraits8TypeListIJEEEE17GetMergeableValueEv, symObjAddr: 0x1C648, symBinAddr: 0x10001FC78, symSize: 0x154 }
  - { offsetInCU: 0x15F26F, offset: 0x15F26F, size: 0x8, addend: 0x0, symName: __ZZN4ROOT8Internal3RDF13RVariedActionINS1_12ReportHelperINS_6Detail3RDF13RJittedFilterEEES6_NS_10TypeTraits8TypeListIJEEEE17GetSampleCallbackEvENUljRKNS_3RDF11RSampleInfoEE_D1Ev, symObjAddr: 0x1D2D8, symBinAddr: 0x100020908, symSize: 0x8C }
  - { offsetInCU: 0x15F48C, offset: 0x15F48C, size: 0x8, addend: 0x0, symName: __ZN4ROOT8Internal3RDF13RVariedActionINS1_12ReportHelperINS_6Detail3RDF13RJittedFilterEEES6_NS_10TypeTraits8TypeListIJEEEE16MakeVariedActionEONSt3__16vectorIPvNSC_9allocatorISE_EEEE, symObjAddr: 0x1CA10, symBinAddr: 0x100020040, symSize: 0x50 }
  - { offsetInCU: 0x15F63B, offset: 0x15F63B, size: 0x8, addend: 0x0, symName: __ZN4ROOT8Internal3RDF13RVariedActionINS1_12ReportHelperINS_6Detail3RDF13RJittedFilterEEES6_NS_10TypeTraits8TypeListIJEEEE11CloneActionEPv, symObjAddr: 0x1CA60, symBinAddr: 0x100020090, symSize: 0x12C }
  - { offsetInCU: 0x15FA60, offset: 0x15FA60, size: 0x8, addend: 0x0, symName: __ZN4ROOT8Internal3RDF13RVariedActionINS1_12ReportHelperINS_6Detail3RDF13RJittedFilterEEES6_NS_10TypeTraits8TypeListIJEEEEC2EONSt3__16vectorIS7_NSC_9allocatorIS7_EEEERKNSD_INSC_12basic_stringIcNSC_11char_traitsIcEENSE_IcEEEENSE_ISM_EEEERKNSD_INSC_10shared_ptrINS5_11RFilterBaseEEENSE_IST_EEEERKNS1_15RColumnRegisterE, symObjAddr: 0x1D730, symBinAddr: 0x100020D60, symSize: 0x12C }
  - { offsetInCU: 0x15FCBA, offset: 0x15FCBA, size: 0x8, addend: 0x0, symName: __ZN4ROOT8Internal3RDF13RVariedActionINS1_12ReportHelperINS_6Detail3RDF13RJittedFilterEEES6_NS_10TypeTraits8TypeListIJEEEE11CloneActionEPv.cold.1, symObjAddr: 0x1E5E4, symBinAddr: 0x100022734, symSize: 0x28 }
  - { offsetInCU: 0x15FE55, offset: 0x15FE55, size: 0x8, addend: 0x0, symName: __ZNKSt3__16vectorINS_10shared_ptrIN4ROOT6Detail3RDF11RFilterBaseEEENS_9allocatorIS6_EEE20__throw_length_errorB7v160006Ev, symObjAddr: 0x1CCF4, symBinAddr: 0x100020324, symSize: 0x14 }
  - { offsetInCU: 0x15FE7E, offset: 0x15FE7E, size: 0x8, addend: 0x0, symName: __ZNSt3__16vectorINS_10shared_ptrIN4ROOT6Detail3RDF11RFilterBaseEEENS_9allocatorIS6_EEE8__appendEmRKS6_, symObjAddr: 0x1CD08, symBinAddr: 0x100020338, symSize: 0x1CC }
  - { offsetInCU: 0x160195, offset: 0x160195, size: 0x8, addend: 0x0, symName: __ZNSt3__110__function6__funcIZN4ROOT8Internal3RDF13RVariedActionINS4_12ReportHelperINS2_6Detail3RDF13RJittedFilterEEES9_NS2_10TypeTraits8TypeListIJEEEE17GetSampleCallbackEvEUljRKNS2_3RDF11RSampleInfoEE_NS_9allocatorISJ_EEFvjSI_EED1Ev, symObjAddr: 0x1D364, symBinAddr: 0x100020994, symSize: 0x9C }
  - { offsetInCU: 0x1604A7, offset: 0x1604A7, size: 0x8, addend: 0x0, symName: __ZNSt3__110__function6__funcIZN4ROOT8Internal3RDF13RVariedActionINS4_12ReportHelperINS2_6Detail3RDF13RJittedFilterEEES9_NS2_10TypeTraits8TypeListIJEEEE17GetSampleCallbackEvEUljRKNS2_3RDF11RSampleInfoEE_NS_9allocatorISJ_EEFvjSI_EED0Ev, symObjAddr: 0x1D400, symBinAddr: 0x100020A30, symSize: 0x9C }
  - { offsetInCU: 0x160AD0, offset: 0x160AD0, size: 0x8, addend: 0x0, symName: __ZNKSt3__110__function6__funcIZN4ROOT8Internal3RDF13RVariedActionINS4_12ReportHelperINS2_6Detail3RDF13RJittedFilterEEES9_NS2_10TypeTraits8TypeListIJEEEE17GetSampleCallbackEvEUljRKNS2_3RDF11RSampleInfoEE_NS_9allocatorISJ_EEFvjSI_EE7__cloneEv, symObjAddr: 0x1D49C, symBinAddr: 0x100020ACC, symSize: 0x58 }
  - { offsetInCU: 0x160F58, offset: 0x160F58, size: 0x8, addend: 0x0, symName: __ZNKSt3__110__function6__funcIZN4ROOT8Internal3RDF13RVariedActionINS4_12ReportHelperINS2_6Detail3RDF13RJittedFilterEEES9_NS2_10TypeTraits8TypeListIJEEEE17GetSampleCallbackEvEUljRKNS2_3RDF11RSampleInfoEE_NS_9allocatorISJ_EEFvjSI_EE7__cloneEPNS0_6__baseISM_EE, symObjAddr: 0x1D4F4, symBinAddr: 0x100020B24, symSize: 0x20 }
  - { offsetInCU: 0x16113C, offset: 0x16113C, size: 0x8, addend: 0x0, symName: __ZNSt3__110__function6__funcIZN4ROOT8Internal3RDF13RVariedActionINS4_12ReportHelperINS2_6Detail3RDF13RJittedFilterEEES9_NS2_10TypeTraits8TypeListIJEEEE17GetSampleCallbackEvEUljRKNS2_3RDF11RSampleInfoEE_NS_9allocatorISJ_EEFvjSI_EE7destroyEv, symObjAddr: 0x1D514, symBinAddr: 0x100020B44, symSize: 0xA4 }
  - { offsetInCU: 0x16139A, offset: 0x16139A, size: 0x8, addend: 0x0, symName: __ZNSt3__110__function6__funcIZN4ROOT8Internal3RDF13RVariedActionINS4_12ReportHelperINS2_6Detail3RDF13RJittedFilterEEES9_NS2_10TypeTraits8TypeListIJEEEE17GetSampleCallbackEvEUljRKNS2_3RDF11RSampleInfoEE_NS_9allocatorISJ_EEFvjSI_EE18destroy_deallocateEv, symObjAddr: 0x1D5B8, symBinAddr: 0x100020BE8, symSize: 0x8C }
  - { offsetInCU: 0x1617E4, offset: 0x1617E4, size: 0x8, addend: 0x0, symName: __ZNSt3__110__function6__funcIZN4ROOT8Internal3RDF13RVariedActionINS4_12ReportHelperINS2_6Detail3RDF13RJittedFilterEEES9_NS2_10TypeTraits8TypeListIJEEEE17GetSampleCallbackEvEUljRKNS2_3RDF11RSampleInfoEE_NS_9allocatorISJ_EEFvjSI_EEclEOjSI_, symObjAddr: 0x1D644, symBinAddr: 0x100020C74, symSize: 0x6C }
  - { offsetInCU: 0x16197E, offset: 0x16197E, size: 0x8, addend: 0x0, symName: __ZNKSt3__110__function6__funcIZN4ROOT8Internal3RDF13RVariedActionINS4_12ReportHelperINS2_6Detail3RDF13RJittedFilterEEES9_NS2_10TypeTraits8TypeListIJEEEE17GetSampleCallbackEvEUljRKNS2_3RDF11RSampleInfoEE_NS_9allocatorISJ_EEFvjSI_EE6targetERKSt9type_info, symObjAddr: 0x1D6B0, symBinAddr: 0x100020CE0, symSize: 0x74 }
  - { offsetInCU: 0x161989, offset: 0x161989, size: 0x8, addend: 0x0, symName: __ZNKSt3__110__function6__funcIZN4ROOT8Internal3RDF13RVariedActionINS4_12ReportHelperINS2_6Detail3RDF13RJittedFilterEEES9_NS2_10TypeTraits8TypeListIJEEEE17GetSampleCallbackEvEUljRKNS2_3RDF11RSampleInfoEE_NS_9allocatorISJ_EEFvjSI_EE6targetERKSt9type_info, symObjAddr: 0x1D6B0, symBinAddr: 0x100020CE0, symSize: 0x74 }
  - { offsetInCU: 0x161A0E, offset: 0x161A0E, size: 0x8, addend: 0x0, symName: __ZNKSt3__110__function6__funcIZN4ROOT8Internal3RDF13RVariedActionINS4_12ReportHelperINS2_6Detail3RDF13RJittedFilterEEES9_NS2_10TypeTraits8TypeListIJEEEE17GetSampleCallbackEvEUljRKNS2_3RDF11RSampleInfoEE_NS_9allocatorISJ_EEFvjSI_EE11target_typeEv, symObjAddr: 0x1D724, symBinAddr: 0x100020D54, symSize: 0xC }
  - { offsetInCU: 0x161A5B, offset: 0x161A5B, size: 0x8, addend: 0x0, symName: __ZNSt3__16vectorINS_10shared_ptrIN4ROOT6Detail3RDF11RFilterBaseEEENS_9allocatorIS6_EEEC1ERKS9_, symObjAddr: 0x1D85C, symBinAddr: 0x100020E8C, symSize: 0xC8 }
  - { offsetInCU: 0x161F37, offset: 0x161F37, size: 0x8, addend: 0x0, symName: __ZNSt3__16vectorINS_10shared_ptrIN4ROOT6Detail3RDF11RFilterBaseEEENS_9allocatorIS6_EEEC1ERKS9_.cold.1, symObjAddr: 0x1E60C, symBinAddr: 0x10002275C, symSize: 0x60 }
  - { offsetInCU: 0x162141, offset: 0x162141, size: 0x8, addend: 0x0, symName: __ZNSt3__120__shared_ptr_pointerIPN4ROOT8Internal3RDF7RActionINS3_12ReportHelperINS1_6Detail3RDF13RJittedFilterEEES8_NS1_10TypeTraits8TypeListIJEEEEENS_14default_deleteISD_EENS_9allocatorISD_EEED1Ev, symObjAddr: 0x1D924, symBinAddr: 0x100020F54, symSize: 0x4 }
  - { offsetInCU: 0x162163, offset: 0x162163, size: 0x8, addend: 0x0, symName: __ZNSt3__120__shared_ptr_pointerIPN4ROOT8Internal3RDF7RActionINS3_12ReportHelperINS1_6Detail3RDF13RJittedFilterEEES8_NS1_10TypeTraits8TypeListIJEEEEENS_14default_deleteISD_EENS_9allocatorISD_EEED1Ev, symObjAddr: 0x1D924, symBinAddr: 0x100020F54, symSize: 0x4 }
  - { offsetInCU: 0x162199, offset: 0x162199, size: 0x8, addend: 0x0, symName: __ZNSt3__120__shared_ptr_pointerIPN4ROOT8Internal3RDF7RActionINS3_12ReportHelperINS1_6Detail3RDF13RJittedFilterEEES8_NS1_10TypeTraits8TypeListIJEEEEENS_14default_deleteISD_EENS_9allocatorISD_EEED0Ev, symObjAddr: 0x1D928, symBinAddr: 0x100020F58, symSize: 0x14 }
  - { offsetInCU: 0x1621FC, offset: 0x1621FC, size: 0x8, addend: 0x0, symName: __ZNSt3__120__shared_ptr_pointerIPN4ROOT8Internal3RDF7RActionINS3_12ReportHelperINS1_6Detail3RDF13RJittedFilterEEES8_NS1_10TypeTraits8TypeListIJEEEEENS_14default_deleteISD_EENS_9allocatorISD_EEE16__on_zero_sharedEv, symObjAddr: 0x1D93C, symBinAddr: 0x100020F6C, symSize: 0x18 }
  - { offsetInCU: 0x16224C, offset: 0x16224C, size: 0x8, addend: 0x0, symName: __ZNKSt3__120__shared_ptr_pointerIPN4ROOT8Internal3RDF7RActionINS3_12ReportHelperINS1_6Detail3RDF13RJittedFilterEEES8_NS1_10TypeTraits8TypeListIJEEEEENS_14default_deleteISD_EENS_9allocatorISD_EEE13__get_deleterERKSt9type_info, symObjAddr: 0x1D954, symBinAddr: 0x100020F84, symSize: 0x74 }
  - { offsetInCU: 0x16232A, offset: 0x16232A, size: 0x8, addend: 0x0, symName: __ZNSt3__120__shared_ptr_pointerIPN4ROOT8Internal3RDF7RActionINS3_12ReportHelperINS1_6Detail3RDF13RJittedFilterEEES8_NS1_10TypeTraits8TypeListIJEEEEENS_14default_deleteISD_EENS_9allocatorISD_EEE21__on_zero_shared_weakEv, symObjAddr: 0x1D9C8, symBinAddr: 0x100020FF8, symSize: 0x4 }
  - { offsetInCU: 0x16235E, offset: 0x16235E, size: 0x8, addend: 0x0, symName: __ZNSt3__120__shared_ptr_pointerIPN4ROOT8Internal3RDF7RActionINS3_12ReportHelperINS1_6Detail3RDF13RJittedFilterEEES8_NS1_10TypeTraits8TypeListIJEEEEENS_14default_deleteISD_EENS_9allocatorISD_EEE21__on_zero_shared_weakEv, symObjAddr: 0x1D9C8, symBinAddr: 0x100020FF8, symSize: 0x4 }
  - { offsetInCU: 0x162380, offset: 0x162380, size: 0x8, addend: 0x0, symName: __ZNSt3__120__shared_ptr_pointerIPN4ROOT8Internal3RDF7RActionINS3_12ReportHelperINS1_6Detail3RDF13RJittedFilterEEES8_NS1_10TypeTraits8TypeListIJEEEEENS_14default_deleteISD_EENS_9allocatorISD_EEE21__on_zero_shared_weakEv, symObjAddr: 0x1D9C8, symBinAddr: 0x100020FF8, symSize: 0x4 }
  - { offsetInCU: 0x1623AB, offset: 0x1623AB, size: 0x8, addend: 0x0, symName: __ZNSt3__120__shared_ptr_pointerIPN4ROOT8Internal3RDF7RActionINS3_12ReportHelperINS1_6Detail3RDF13RJittedFilterEEES8_NS1_10TypeTraits8TypeListIJEEEEENS_14default_deleteISD_EENS_9allocatorISD_EEE21__on_zero_shared_weakEv, symObjAddr: 0x1D9C8, symBinAddr: 0x100020FF8, symSize: 0x4 }
  - { offsetInCU: 0x1623D1, offset: 0x1623D1, size: 0x8, addend: 0x0, symName: __ZNSt3__120__shared_ptr_pointerIPN4ROOT8Internal3RDF7RActionINS3_12ReportHelperINS1_6Detail3RDF13RJittedFilterEEES8_NS1_10TypeTraits8TypeListIJEEEEENS_14default_deleteISD_EENS_9allocatorISD_EEE21__on_zero_shared_weakEv, symObjAddr: 0x1D9C8, symBinAddr: 0x100020FF8, symSize: 0x4 }
  - { offsetInCU: 0x1629A7, offset: 0x1629A7, size: 0x8, addend: 0x0, symName: __ZNSt3__110shared_ptrIN4ROOT8Internal3RDF13RJittedActionEED1B7v160006Ev, symObjAddr: 0x1E15C, symBinAddr: 0x10002178C, symSize: 0x60 }
  - { offsetInCU: 0x162A58, offset: 0x162A58, size: 0x8, addend: 0x0, symName: __ZNSt3__120__shared_ptr_emplaceIN4ROOT8Internal3RDF18SnapshotHelperArgsENS_9allocatorIS4_EEED1Ev, symObjAddr: 0x1DF84, symBinAddr: 0x1000215B4, symSize: 0x14 }
  - { offsetInCU: 0x162A7A, offset: 0x162A7A, size: 0x8, addend: 0x0, symName: __ZNSt3__120__shared_ptr_emplaceIN4ROOT8Internal3RDF18SnapshotHelperArgsENS_9allocatorIS4_EEED1Ev, symObjAddr: 0x1DF84, symBinAddr: 0x1000215B4, symSize: 0x14 }
  - { offsetInCU: 0x162AB2, offset: 0x162AB2, size: 0x8, addend: 0x0, symName: __ZNSt3__120__shared_ptr_emplaceIN4ROOT8Internal3RDF18SnapshotHelperArgsENS_9allocatorIS4_EEED0Ev, symObjAddr: 0x1DF98, symBinAddr: 0x1000215C8, symSize: 0x24 }
  - { offsetInCU: 0x162B18, offset: 0x162B18, size: 0x8, addend: 0x0, symName: __ZNSt3__120__shared_ptr_emplaceIN4ROOT8Internal3RDF18SnapshotHelperArgsENS_9allocatorIS4_EEE16__on_zero_sharedEv, symObjAddr: 0x1DFBC, symBinAddr: 0x1000215EC, symSize: 0x8 }
  - { offsetInCU: 0x162B41, offset: 0x162B41, size: 0x8, addend: 0x0, symName: __ZNSt3__120__shared_ptr_emplaceIN4ROOT8Internal3RDF18SnapshotHelperArgsENS_9allocatorIS4_EEE16__on_zero_sharedEv, symObjAddr: 0x1DFBC, symBinAddr: 0x1000215EC, symSize: 0x8 }
  - { offsetInCU: 0x162BDF, offset: 0x162BDF, size: 0x8, addend: 0x0, symName: __ZNSt3__120__shared_ptr_emplaceIN4ROOT8Internal3RDF18SnapshotHelperArgsENS_9allocatorIS4_EEE21__on_zero_shared_weakEv, symObjAddr: 0x1DFC4, symBinAddr: 0x1000215F4, symSize: 0x4 }
  - { offsetInCU: 0x162C12, offset: 0x162C12, size: 0x8, addend: 0x0, symName: __ZNSt3__120__shared_ptr_emplaceIN4ROOT8Internal3RDF18SnapshotHelperArgsENS_9allocatorIS4_EEE21__on_zero_shared_weakEv, symObjAddr: 0x1DFC4, symBinAddr: 0x1000215F4, symSize: 0x4 }
  - { offsetInCU: 0x162C34, offset: 0x162C34, size: 0x8, addend: 0x0, symName: __ZNSt3__120__shared_ptr_emplaceIN4ROOT8Internal3RDF18SnapshotHelperArgsENS_9allocatorIS4_EEE21__on_zero_shared_weakEv, symObjAddr: 0x1DFC4, symBinAddr: 0x1000215F4, symSize: 0x4 }
  - { offsetInCU: 0x162C56, offset: 0x162C56, size: 0x8, addend: 0x0, symName: __ZNSt3__120__shared_ptr_emplaceIN4ROOT8Internal3RDF18SnapshotHelperArgsENS_9allocatorIS4_EEE21__on_zero_shared_weakEv, symObjAddr: 0x1DFC4, symBinAddr: 0x1000215F4, symSize: 0x4 }
  - { offsetInCU: 0x162C83, offset: 0x162C83, size: 0x8, addend: 0x0, symName: __ZNSt3__120__shared_ptr_emplaceIN4ROOT8Internal3RDF18SnapshotHelperArgsENS_9allocatorIS4_EEE21__on_zero_shared_weakEv, symObjAddr: 0x1DFC4, symBinAddr: 0x1000215F4, symSize: 0x4 }
  - { offsetInCU: 0x162CAB, offset: 0x162CAB, size: 0x8, addend: 0x0, symName: __ZNSt3__120__shared_ptr_emplaceIN4ROOT8Internal3RDF18SnapshotHelperArgsENS_9allocatorIS4_EEE21__on_zero_shared_weakEv, symObjAddr: 0x1DFC4, symBinAddr: 0x1000215F4, symSize: 0x4 }
  - { offsetInCU: 0x162CF4, offset: 0x162CF4, size: 0x8, addend: 0x0, symName: __ZNSt3__120__shared_ptr_emplaceIN4ROOT10RDataFrameENS_9allocatorIS2_EEED1Ev, symObjAddr: 0x1E0C0, symBinAddr: 0x1000216F0, symSize: 0x14 }
  - { offsetInCU: 0x162D16, offset: 0x162D16, size: 0x8, addend: 0x0, symName: __ZNSt3__120__shared_ptr_emplaceIN4ROOT10RDataFrameENS_9allocatorIS2_EEED1Ev, symObjAddr: 0x1E0C0, symBinAddr: 0x1000216F0, symSize: 0x14 }
  - { offsetInCU: 0x162D4E, offset: 0x162D4E, size: 0x8, addend: 0x0, symName: __ZNSt3__120__shared_ptr_emplaceIN4ROOT10RDataFrameENS_9allocatorIS2_EEED0Ev, symObjAddr: 0x1E0D4, symBinAddr: 0x100021704, symSize: 0x24 }
  - { offsetInCU: 0x162DB4, offset: 0x162DB4, size: 0x8, addend: 0x0, symName: __ZNSt3__120__shared_ptr_emplaceIN4ROOT10RDataFrameENS_9allocatorIS2_EEE16__on_zero_sharedEv, symObjAddr: 0x1E0F8, symBinAddr: 0x100021728, symSize: 0x60 }
  - { offsetInCU: 0x162ED4, offset: 0x162ED4, size: 0x8, addend: 0x0, symName: __ZNSt3__120__shared_ptr_emplaceIN4ROOT10RDataFrameENS_9allocatorIS2_EEE21__on_zero_shared_weakEv, symObjAddr: 0x1E158, symBinAddr: 0x100021788, symSize: 0x4 }
  - { offsetInCU: 0x162F07, offset: 0x162F07, size: 0x8, addend: 0x0, symName: __ZNSt3__120__shared_ptr_emplaceIN4ROOT10RDataFrameENS_9allocatorIS2_EEE21__on_zero_shared_weakEv, symObjAddr: 0x1E158, symBinAddr: 0x100021788, symSize: 0x4 }
  - { offsetInCU: 0x162F29, offset: 0x162F29, size: 0x8, addend: 0x0, symName: __ZNSt3__120__shared_ptr_emplaceIN4ROOT10RDataFrameENS_9allocatorIS2_EEE21__on_zero_shared_weakEv, symObjAddr: 0x1E158, symBinAddr: 0x100021788, symSize: 0x4 }
  - { offsetInCU: 0x162F4B, offset: 0x162F4B, size: 0x8, addend: 0x0, symName: __ZNSt3__120__shared_ptr_emplaceIN4ROOT10RDataFrameENS_9allocatorIS2_EEE21__on_zero_shared_weakEv, symObjAddr: 0x1E158, symBinAddr: 0x100021788, symSize: 0x4 }
  - { offsetInCU: 0x162F78, offset: 0x162F78, size: 0x8, addend: 0x0, symName: __ZNSt3__120__shared_ptr_emplaceIN4ROOT10RDataFrameENS_9allocatorIS2_EEE21__on_zero_shared_weakEv, symObjAddr: 0x1E158, symBinAddr: 0x100021788, symSize: 0x4 }
  - { offsetInCU: 0x162FA0, offset: 0x162FA0, size: 0x8, addend: 0x0, symName: __ZNSt3__120__shared_ptr_emplaceIN4ROOT10RDataFrameENS_9allocatorIS2_EEE21__on_zero_shared_weakEv, symObjAddr: 0x1E158, symBinAddr: 0x100021788, symSize: 0x4 }
  - { offsetInCU: 0x162FE9, offset: 0x162FE9, size: 0x8, addend: 0x0, symName: __ZNSt3__120__shared_ptr_emplaceIN4ROOT8Internal3RDF13RJittedActionENS_9allocatorIS4_EEED1Ev, symObjAddr: 0x1E1BC, symBinAddr: 0x1000217EC, symSize: 0x14 }
  - { offsetInCU: 0x16300B, offset: 0x16300B, size: 0x8, addend: 0x0, symName: __ZNSt3__120__shared_ptr_emplaceIN4ROOT8Internal3RDF13RJittedActionENS_9allocatorIS4_EEED1Ev, symObjAddr: 0x1E1BC, symBinAddr: 0x1000217EC, symSize: 0x14 }
  - { offsetInCU: 0x163043, offset: 0x163043, size: 0x8, addend: 0x0, symName: __ZNSt3__120__shared_ptr_emplaceIN4ROOT8Internal3RDF13RJittedActionENS_9allocatorIS4_EEED0Ev, symObjAddr: 0x1E1D0, symBinAddr: 0x100021800, symSize: 0x24 }
  - { offsetInCU: 0x1630A9, offset: 0x1630A9, size: 0x8, addend: 0x0, symName: __ZNSt3__120__shared_ptr_emplaceIN4ROOT8Internal3RDF13RJittedActionENS_9allocatorIS4_EEE16__on_zero_sharedEv, symObjAddr: 0x1E1F4, symBinAddr: 0x100021824, symSize: 0xC }
  - { offsetInCU: 0x1630DC, offset: 0x1630DC, size: 0x8, addend: 0x0, symName: __ZNSt3__120__shared_ptr_emplaceIN4ROOT8Internal3RDF13RJittedActionENS_9allocatorIS4_EEE21__on_zero_shared_weakEv, symObjAddr: 0x1E200, symBinAddr: 0x100021830, symSize: 0x4 }
  - { offsetInCU: 0x16310F, offset: 0x16310F, size: 0x8, addend: 0x0, symName: __ZNSt3__120__shared_ptr_emplaceIN4ROOT8Internal3RDF13RJittedActionENS_9allocatorIS4_EEE21__on_zero_shared_weakEv, symObjAddr: 0x1E200, symBinAddr: 0x100021830, symSize: 0x4 }
  - { offsetInCU: 0x163131, offset: 0x163131, size: 0x8, addend: 0x0, symName: __ZNSt3__120__shared_ptr_emplaceIN4ROOT8Internal3RDF13RJittedActionENS_9allocatorIS4_EEE21__on_zero_shared_weakEv, symObjAddr: 0x1E200, symBinAddr: 0x100021830, symSize: 0x4 }
  - { offsetInCU: 0x163153, offset: 0x163153, size: 0x8, addend: 0x0, symName: __ZNSt3__120__shared_ptr_emplaceIN4ROOT8Internal3RDF13RJittedActionENS_9allocatorIS4_EEE21__on_zero_shared_weakEv, symObjAddr: 0x1E200, symBinAddr: 0x100021830, symSize: 0x4 }
  - { offsetInCU: 0x163180, offset: 0x163180, size: 0x8, addend: 0x0, symName: __ZNSt3__120__shared_ptr_emplaceIN4ROOT8Internal3RDF13RJittedActionENS_9allocatorIS4_EEE21__on_zero_shared_weakEv, symObjAddr: 0x1E200, symBinAddr: 0x100021830, symSize: 0x4 }
  - { offsetInCU: 0x1631A8, offset: 0x1631A8, size: 0x8, addend: 0x0, symName: __ZNSt3__120__shared_ptr_emplaceIN4ROOT8Internal3RDF13RJittedActionENS_9allocatorIS4_EEE21__on_zero_shared_weakEv, symObjAddr: 0x1E200, symBinAddr: 0x100021830, symSize: 0x4 }
  - { offsetInCU: 0x1631D4, offset: 0x1631D4, size: 0x8, addend: 0x0, symName: _OUTLINED_FUNCTION_0, symObjAddr: 0x1E66C, symBinAddr: 0x100021834, symSize: 0x8 }
  - { offsetInCU: 0x1631EC, offset: 0x1631EC, size: 0x8, addend: 0x0, symName: _OUTLINED_FUNCTION_1, symObjAddr: 0x1E674, symBinAddr: 0x10002183C, symSize: 0x10 }
  - { offsetInCU: 0x163204, offset: 0x163204, size: 0x8, addend: 0x0, symName: _OUTLINED_FUNCTION_2, symObjAddr: 0x1E684, symBinAddr: 0x10002184C, symSize: 0xC }
  - { offsetInCU: 0x16321C, offset: 0x16321C, size: 0x8, addend: 0x0, symName: _OUTLINED_FUNCTION_3, symObjAddr: 0x1E690, symBinAddr: 0x100021858, symSize: 0x10 }
  - { offsetInCU: 0x163234, offset: 0x163234, size: 0x8, addend: 0x0, symName: _OUTLINED_FUNCTION_4, symObjAddr: 0x1E6A0, symBinAddr: 0x100021868, symSize: 0x18 }
  - { offsetInCU: 0x16324C, offset: 0x16324C, size: 0x8, addend: 0x0, symName: _OUTLINED_FUNCTION_5, symObjAddr: 0x1E6B8, symBinAddr: 0x100021880, symSize: 0x18 }
  - { offsetInCU: 0x163264, offset: 0x163264, size: 0x8, addend: 0x0, symName: _OUTLINED_FUNCTION_6, symObjAddr: 0x1E6D0, symBinAddr: 0x100021898, symSize: 0x8 }
...
